(dp0
V
p1
(lp2
S'&#x1f466&#x1f3fb;'
p3
aS'&#x1f466&#x1f3fc;'
p4
aS'&#x1f466&#x1f3fd;'
p5
aS'&#x1f466&#x1f3fe;'
p6
aS'&#x1f466&#x1f3ff;'
p7
aS'&#x1f467&#x1f3fb;'
p8
aS'&#x1f467&#x1f3fc;'
p9
aS'&#x1f467&#x1f3fd;'
p10
aS'&#x1f467&#x1f3fe;'
p11
aS'&#x1f467&#x1f3ff;'
p12
aS'&#x1f468&#x1f3fb;'
p13
aS'&#x1f468&#x1f3fc;'
p14
aS'&#x1f468&#x1f3fd;'
p15
aS'&#x1f468&#x1f3fe;'
p16
aS'&#x1f468&#x1f3ff;'
p17
aS'&#x1f469&#x1f3fb;'
p18
aS'&#x1f469&#x1f3fc;'
p19
aS'&#x1f469&#x1f3fd;'
p20
aS'&#x1f469&#x1f3fe;'
p21
aS'&#x1f469&#x1f3ff;'
p22
aS'&#x1f474&#x1f3fb;'
p23
aS'&#x1f474&#x1f3fc;'
p24
aS'&#x1f474&#x1f3fd;'
p25
aS'&#x1f474&#x1f3fe;'
p26
aS'&#x1f474&#x1f3ff;'
p27
aS'&#x1f475&#x1f3fb;'
p28
aS'&#x1f475&#x1f3fc;'
p29
aS'&#x1f475&#x1f3fd;'
p30
aS'&#x1f475&#x1f3fe;'
p31
aS'&#x1f475&#x1f3ff;'
p32
aS'&#x1f476&#x1f3fb;'
p33
aS'&#x1f476&#x1f3fc;'
p34
aS'&#x1f476&#x1f3fd;'
p35
aS'&#x1f476&#x1f3fe;'
p36
aS'&#x1f476&#x1f3ff;'
p37
aS'&#x1f471&#x1f3fb;'
p38
aS'&#x1f471&#x1f3fc;'
p39
aS'&#x1f471&#x1f3fd;'
p40
aS'&#x1f471&#x1f3fe;'
p41
aS'&#x1f471&#x1f3ff;'
p42
aS'&#x1f46e&#x1f3fb;'
p43
aS'&#x1f46e&#x1f3fc;'
p44
aS'&#x1f46e&#x1f3fd;'
p45
aS'&#x1f46e&#x1f3fe;'
p46
aS'&#x1f46e&#x1f3ff;'
p47
aS'&#x1f472&#x1f3fb;'
p48
aS'&#x1f472&#x1f3fc;'
p49
aS'&#x1f472&#x1f3fd;'
p50
aS'&#x1f472&#x1f3fe;'
p51
aS'&#x1f472&#x1f3ff;'
p52
aS'&#x1f473&#x1f3fb;'
p53
aS'&#x1f473&#x1f3fc;'
p54
aS'&#x1f473&#x1f3fd;'
p55
aS'&#x1f473&#x1f3fe;'
p56
aS'&#x1f473&#x1f3ff;'
p57
aS'&#x1f477&#x1f3fb;'
p58
aS'&#x1f477&#x1f3fc;'
p59
aS'&#x1f477&#x1f3fd;'
p60
aS'&#x1f477&#x1f3fe;'
p61
aS'&#x1f477&#x1f3ff;'
p62
aS'&#x1f478&#x1f3fb;'
p63
aS'&#x1f478&#x1f3fc;'
p64
aS'&#x1f478&#x1f3fd;'
p65
aS'&#x1f478&#x1f3fe;'
p66
aS'&#x1f478&#x1f3ff;'
p67
aS'&#x1f482&#x1f3fb;'
p68
aS'&#x1f482&#x1f3fc;'
p69
aS'&#x1f482&#x1f3fd;'
p70
aS'&#x1f482&#x1f3fe;'
p71
aS'&#x1f482&#x1f3ff;'
p72
aS'&#x1f575&#x1f3fb;'
p73
aS'&#x1f575&#x1f3fc;'
p74
aS'&#x1f575&#x1f3fd;'
p75
aS'&#x1f575&#x1f3fe;'
p76
aS'&#x1f575&#x1f3ff;'
p77
aS'&#x1f385&#x1f3fb;'
p78
aS'&#x1f385&#x1f3fc;'
p79
aS'&#x1f385&#x1f3fd;'
p80
aS'&#x1f385&#x1f3fe;'
p81
aS'&#x1f385&#x1f3ff;'
p82
aS'&#x1f470&#x1f3fb;'
p83
aS'&#x1f470&#x1f3fc;'
p84
aS'&#x1f470&#x1f3fd;'
p85
aS'&#x1f470&#x1f3fe;'
p86
aS'&#x1f470&#x1f3ff;'
p87
aS'&#x1f47c&#x1f3fb;'
p88
aS'&#x1f47c&#x1f3fc;'
p89
aS'&#x1f47c&#x1f3fd;'
p90
aS'&#x1f47c&#x1f3fe;'
p91
aS'&#x1f47c&#x1f3ff;'
p92
aS'&#x1f486&#x1f3fb;'
p93
aS'&#x1f486&#x1f3fc;'
p94
aS'&#x1f486&#x1f3fd;'
p95
aS'&#x1f486&#x1f3fe;'
p96
aS'&#x1f486&#x1f3ff;'
p97
aS'&#x1f487&#x1f3fb;'
p98
aS'&#x1f487&#x1f3fc;'
p99
aS'&#x1f487&#x1f3fd;'
p100
aS'&#x1f487&#x1f3fe;'
p101
aS'&#x1f487&#x1f3ff;'
p102
aS'&#x1f64d&#x1f3fb;'
p103
aS'&#x1f64d&#x1f3fc;'
p104
aS'&#x1f64d&#x1f3fd;'
p105
aS'&#x1f64d&#x1f3fe;'
p106
aS'&#x1f64d&#x1f3ff;'
p107
aS'&#x1f64e&#x1f3fb;'
p108
aS'&#x1f64e&#x1f3fc;'
p109
aS'&#x1f64e&#x1f3fd;'
p110
aS'&#x1f64e&#x1f3fe;'
p111
aS'&#x1f64e&#x1f3ff;'
p112
aS'&#x1f645&#x1f3fb;'
p113
aS'&#x1f645&#x1f3fc;'
p114
aS'&#x1f645&#x1f3fd;'
p115
aS'&#x1f645&#x1f3fe;'
p116
aS'&#x1f645&#x1f3ff;'
p117
aS'&#x1f646&#x1f3fb;'
p118
aS'&#x1f646&#x1f3fc;'
p119
aS'&#x1f646&#x1f3fd;'
p120
aS'&#x1f646&#x1f3fe;'
p121
aS'&#x1f646&#x1f3ff;'
p122
aS'&#x1f481&#x1f3fb;'
p123
aS'&#x1f481&#x1f3fc;'
p124
aS'&#x1f481&#x1f3fd;'
p125
aS'&#x1f481&#x1f3fe;'
p126
aS'&#x1f481&#x1f3ff;'
p127
aS'&#x1f64b&#x1f3fb;'
p128
aS'&#x1f64b&#x1f3fc;'
p129
aS'&#x1f64b&#x1f3fd;'
p130
aS'&#x1f64b&#x1f3fe;'
p131
aS'&#x1f64b&#x1f3ff;'
p132
aS'&#x1f647&#x1f3fb;'
p133
aS'&#x1f647&#x1f3fc;'
p134
aS'&#x1f647&#x1f3fd;'
p135
aS'&#x1f647&#x1f3fe;'
p136
aS'&#x1f647&#x1f3ff;'
p137
aS'&#x1f64c&#x1f3fb;'
p138
aS'&#x1f64c&#x1f3fc;'
p139
aS'&#x1f64c&#x1f3fd;'
p140
aS'&#x1f64c&#x1f3fe;'
p141
aS'&#x1f64c&#x1f3ff;'
p142
aS'&#x1f64f&#x1f3fb;'
p143
aS'&#x1f64f&#x1f3fc;'
p144
aS'&#x1f64f&#x1f3fd;'
p145
aS'&#x1f64f&#x1f3fe;'
p146
aS'&#x1f64f&#x1f3ff;'
p147
aS'&#x1f6b6&#x1f3fb;'
p148
aS'&#x1f6b6&#x1f3fc;'
p149
aS'&#x1f6b6&#x1f3fd;'
p150
aS'&#x1f6b6&#x1f3fe;'
p151
aS'&#x1f6b6&#x1f3ff;'
p152
aS'&#x1f3c3&#x1f3fb;'
p153
aS'&#x1f3c3&#x1f3fc;'
p154
aS'&#x1f3c3&#x1f3fd;'
p155
aS'&#x1f3c3&#x1f3fe;'
p156
aS'&#x1f3c3&#x1f3ff;'
p157
aS'&#x1f483&#x1f3fb;'
p158
aS'&#x1f483&#x1f3fc;'
p159
aS'&#x1f483&#x1f3fd;'
p160
aS'&#x1f483&#x1f3fe;'
p161
aS'&#x1f483&#x1f3ff;'
p162
aS'&#x1f4aa&#x1f3fb;'
p163
aS'&#x1f4aa&#x1f3fc;'
p164
aS'&#x1f4aa&#x1f3fd;'
p165
aS'&#x1f4aa&#x1f3fe;'
p166
aS'&#x1f4aa&#x1f3ff;'
p167
aS'&#x1f448&#x1f3fb;'
p168
aS'&#x1f448&#x1f3fc;'
p169
aS'&#x1f448&#x1f3fd;'
p170
aS'&#x1f448&#x1f3fe;'
p171
aS'&#x1f448&#x1f3ff;'
p172
aS'&#x1f449&#x1f3fb;'
p173
aS'&#x1f449&#x1f3fc;'
p174
aS'&#x1f449&#x1f3fd;'
p175
aS'&#x1f449&#x1f3fe;'
p176
aS'&#x1f449&#x1f3ff;'
p177
aS'&#x261d&#x1f3fb;'
p178
aS'&#x261d&#x1f3fc;'
p179
aS'&#x261d&#x1f3fd;'
p180
aS'&#x261d&#x1f3fe;'
p181
aS'&#x261d&#x1f3ff;'
p182
aS'&#x1f446&#x1f3fb;'
p183
aS'&#x1f446&#x1f3fc;'
p184
aS'&#x1f446&#x1f3fd;'
p185
aS'&#x1f446&#x1f3fe;'
p186
aS'&#x1f446&#x1f3ff;'
p187
aS'&#x1f595&#x1f3fb;'
p188
aS'&#x1f595&#x1f3fc;'
p189
aS'&#x1f595&#x1f3fd;'
p190
aS'&#x1f595&#x1f3fe;'
p191
aS'&#x1f595&#x1f3ff;'
p192
aS'&#x1f447&#x1f3fb;'
p193
aS'&#x1f447&#x1f3fc;'
p194
aS'&#x1f447&#x1f3fd;'
p195
aS'&#x1f447&#x1f3fe;'
p196
aS'&#x1f447&#x1f3ff;'
p197
aS'&#x270c&#x1f3fb;'
p198
aS'&#x270c&#x1f3fc;'
p199
aS'&#x270c&#x1f3fd;'
p200
aS'&#x270c&#x1f3fe;'
p201
aS'&#x270c&#x1f3ff;'
p202
aS'&#x1f596&#x1f3fb;'
p203
aS'&#x1f596&#x1f3fc;'
p204
aS'&#x1f596&#x1f3fd;'
p205
aS'&#x1f596&#x1f3fe;'
p206
aS'&#x1f596&#x1f3ff;'
p207
aS'&#x1f918&#x1f3fb;'
p208
aS'&#x1f918&#x1f3fc;'
p209
aS'&#x1f918&#x1f3fd;'
p210
aS'&#x1f918&#x1f3fe;'
p211
aS'&#x1f918&#x1f3ff;'
p212
aS'&#x1f590&#x1f3fb;'
p213
aS'&#x1f590&#x1f3fc;'
p214
aS'&#x1f590&#x1f3fd;'
p215
aS'&#x1f590&#x1f3fe;'
p216
aS'&#x1f590&#x1f3ff;'
p217
aS'&#x270b&#x1f3fb;'
p218
aS'&#x270b&#x1f3fc;'
p219
aS'&#x270b&#x1f3fd;'
p220
aS'&#x270b&#x1f3fe;'
p221
aS'&#x270b&#x1f3ff;'
p222
aS'&#x1f44c&#x1f3fb;'
p223
aS'&#x1f44c&#x1f3fc;'
p224
aS'&#x1f44c&#x1f3fd;'
p225
aS'&#x1f44c&#x1f3fe;'
p226
aS'&#x1f44c&#x1f3ff;'
p227
aS'&#x1f44d&#x1f3fb;'
p228
aS'&#x1f44d&#x1f3fc;'
p229
aS'&#x1f44d&#x1f3fd;'
p230
aS'&#x1f44d&#x1f3fe;'
p231
aS'&#x1f44d&#x1f3ff;'
p232
aS'&#x1f44e&#x1f3fb;'
p233
aS'&#x1f44e&#x1f3fc;'
p234
aS'&#x1f44e&#x1f3fd;'
p235
aS'&#x1f44e&#x1f3fe;'
p236
aS'&#x1f44e&#x1f3ff;'
p237
aS'&#x270a&#x1f3fb;'
p238
aS'&#x270a&#x1f3fc;'
p239
aS'&#x270a&#x1f3fd;'
p240
aS'&#x270a&#x1f3fe;'
p241
aS'&#x270a&#x1f3ff;'
p242
aS'&#x1f44a&#x1f3fb;'
p243
aS'&#x1f44a&#x1f3fc;'
p244
aS'&#x1f44a&#x1f3fd;'
p245
aS'&#x1f44a&#x1f3fe;'
p246
aS'&#x1f44a&#x1f3ff;'
p247
aS'&#x1f44b&#x1f3fb;'
p248
aS'&#x1f44b&#x1f3fc;'
p249
aS'&#x1f44b&#x1f3fd;'
p250
aS'&#x1f44b&#x1f3fe;'
p251
aS'&#x1f44b&#x1f3ff;'
p252
aS'&#x1f44f&#x1f3fb;'
p253
aS'&#x1f44f&#x1f3fc;'
p254
aS'&#x1f44f&#x1f3fd;'
p255
aS'&#x1f44f&#x1f3fe;'
p256
aS'&#x1f44f&#x1f3ff;'
p257
aS'&#x1f450&#x1f3fb;'
p258
aS'&#x1f450&#x1f3fc;'
p259
aS'&#x1f450&#x1f3fd;'
p260
aS'&#x1f450&#x1f3fe;'
p261
aS'&#x1f450&#x1f3ff;'
p262
aS'&#x270d&#x1f3fb;'
p263
aS'&#x270d&#x1f3fc;'
p264
aS'&#x270d&#x1f3fd;'
p265
aS'&#x270d&#x1f3fe;'
p266
aS'&#x270d&#x1f3ff;'
p267
aS'&#x1f485&#x1f3fb;'
p268
aS'&#x1f485&#x1f3fc;'
p269
aS'&#x1f485&#x1f3fd;'
p270
aS'&#x1f485&#x1f3fe;'
p271
aS'&#x1f485&#x1f3ff;'
p272
aS'&#x1f442&#x1f3fb;'
p273
aS'&#x1f442&#x1f3fc;'
p274
aS'&#x1f442&#x1f3fd;'
p275
aS'&#x1f442&#x1f3fe;'
p276
aS'&#x1f442&#x1f3ff;'
p277
aS'&#x1f443&#x1f3fb;'
p278
aS'&#x1f443&#x1f3fc;'
p279
aS'&#x1f443&#x1f3fd;'
p280
aS'&#x1f443&#x1f3fe;'
p281
aS'&#x1f443&#x1f3ff;'
p282
aS'&#x1f6a3&#x1f3fb;'
p283
aS'&#x1f6a3&#x1f3fc;'
p284
aS'&#x1f6a3&#x1f3fd;'
p285
aS'&#x1f6a3&#x1f3fe;'
p286
aS'&#x1f6a3&#x1f3ff;'
p287
aS'&#x1f6c0&#x1f3fb;'
p288
aS'&#x1f6c0&#x1f3fc;'
p289
aS'&#x1f6c0&#x1f3fd;'
p290
aS'&#x1f6c0&#x1f3fe;'
p291
aS'&#x1f6c0&#x1f3ff;'
p292
aS'&#x1f3c4&#x1f3fb;'
p293
aS'&#x1f3c4&#x1f3fc;'
p294
aS'&#x1f3c4&#x1f3fd;'
p295
aS'&#x1f3c4&#x1f3fe;'
p296
aS'&#x1f3c4&#x1f3ff;'
p297
aS'&#x1f3ca&#x1f3fb;'
p298
aS'&#x1f3ca&#x1f3fc;'
p299
aS'&#x1f3ca&#x1f3fd;'
p300
aS'&#x1f3ca&#x1f3fe;'
p301
aS'&#x1f3ca&#x1f3ff;'
p302
aS'&#x26f9&#x1f3fb;'
p303
aS'&#x26f9&#x1f3fc;'
p304
aS'&#x26f9&#x1f3fd;'
p305
aS'&#x26f9&#x1f3fe;'
p306
aS'&#x26f9&#x1f3ff;'
p307
aS'&#x1f3cb&#x1f3fb;'
p308
aS'&#x1f3cb&#x1f3fc;'
p309
aS'&#x1f3cb&#x1f3fd;'
p310
aS'&#x1f3cb&#x1f3fe;'
p311
aS'&#x1f3cb&#x1f3ff;'
p312
aS'&#x1f6b4&#x1f3fb;'
p313
aS'&#x1f6b4&#x1f3fc;'
p314
aS'&#x1f6b4&#x1f3fd;'
p315
aS'&#x1f6b4&#x1f3fe;'
p316
aS'&#x1f6b4&#x1f3ff;'
p317
aS'&#x1f6b5&#x1f3fb;'
p318
aS'&#x1f6b5&#x1f3fc;'
p319
aS'&#x1f6b5&#x1f3fd;'
p320
aS'&#x1f6b5&#x1f3fe;'
p321
aS'&#x1f6b5&#x1f3ff;'
p322
asVdown-pointing small red triangle\u224a down button
p323
(lp324
S'&#x1f53d;'
p325
asVflag for svalbard & jan mayen
p326
(lp327
S'&#x1f1f8&#x1f1ef;'
p328
asVladybird
p329
(lp330
V&#x1f41e;
p331
aS'&#x1f41e;'
p332
asVyellow
p333
(lp334
S'&#x1f49b;'
p335
aS'&#x1f530;'
p336
asVfour
p337
(lp338
S'&#x1f340;'
p339
aS'&#x1f553;'
p340
aS'&#x1f55f;'
p341
aS'&#x0034&#x20e3;'
p342
asVsleep
p343
(lp344
V&#x1f634;
p345
aS'&#x1f62a;'
p346
aS'&#x1f634;'
p347
aS'&#x1f4a4;'
p348
aS'&#x1f6cc;'
p349
aS'&#x1f6cf;'
p350
asVchart with upwards trend and yen sign\u224a chart increasing with yen
p351
(lp352
S'&#x1f4b9;'
p353
asVmansion
p354
(lp355
V&#x1f3e0;
p356
asVcyprus
p357
(lp358
S'&#x1f1e8&#x1f1fe;'
p359
asVtrolley
p360
(lp361
S'&#x1f68e;'
p362
asVflag for anguilla
p363
(lp364
S'&#x1f1e6&#x1f1ee;'
p365
asVelectricity
p366
(lp367
S'&#x26a1;'
p368
aS'&#x1f50c;'
p369
asVsmiling face with heart-shaped eyes
p370
(lp371
S'&#x1f60d;'
p372
asVlion face
p373
(lp374
S'&#x1f981;'
p375
asVpresents
p376
(lp377
V&#x1f384;
p378
asVbike
p379
(lp380
S'&#x1f6b2;'
p381
aS'&#x1f6b4;'
p382
aS'&#x1f6b5;'
p383
aS'&#x1f6b3;'
p384
asVcactus
p385
(lp386
S'&#x1f335;'
p387
ag387
asVtrousers
p388
(lp389
S'&#x1f456;'
p390
asVrecycle
p391
(lp392
S'&#x267b;'
p393
asVlord
p394
(lp395
V&#x1f3f0;
p396
asVsorry
p397
(lp398
S'&#x1f647;'
p399
asVkeycap digit two
p400
(lp401
S'&#x0032&#x20e3;'
p402
asVflag for cayman islands
p403
(lp404
S'&#x1f1f0&#x1f1fe;'
p405
asVrise
p406
(lp407
V&#x1f307;
p408
ag353
asVguernsey
p409
(lp410
S'&#x1f1ec&#x1f1ec;'
p411
asVisle of man
p412
(lp413
S'&#x1f1ee&#x1f1f2;'
p414
asVconstruction worker
p415
(lp416
S'&#x1f477;'
p417
ag58
ag59
ag60
ag61
ag62
asVjack
p418
(lp419
S'&#x1f383;'
p420
asVthought balloon
p421
(lp422
S'&#x1f4ad;'
p423
asVconfetti
p424
(lp425
V&#x1f38a;
p426
aS'&#x1f38a;'
p427
asVfork and knife with plate
p428
(lp429
S'&#x1f37d;'
p430
asVchapel
p431
(lp432
S'&#x1f492;'
p433
asVteacup without handle
p434
(lp435
S'&#x1f375;'
p436
asVschool
p437
(lp438
V&#x1f392;
p439
aS'&#x1f392;'
p440
aS'&#x1f3eb;'
p441
ag441
asVsuspension railway
p442
(lp443
S'&#x1f69f;'
p444
asVprize
p445
(lp446
S'&#x1f3c6;'
p447
asVhourglass with flowing sand
p448
(lp449
S'&#x23f3;'
p450
asVspacecraft
p451
(lp452
V&#x1f680;
p453
asVlight rail
p454
(lp455
S'&#x1f688;'
p456
asVconvenience
p457
(lp458
S'&#x1f3ea;'
p459
asVsix pointed star with middle dot\u224a dotted six-pointed star
p460
(lp461
S'&#x1f52f;'
p462
asVheavy plus sign
p463
(lp464
S'&#x2795;'
p465
asVtriumph
p466
(lp467
V&#x1f624;
p468
aS'&#x1f624;'
p469
asVwhirlwind
p470
(lp471
S'&#x1f32a;'
p472
asVjamaica
p473
(lp474
S'&#x1f1ef&#x1f1f2;'
p475
asVlady beetle
p476
(lp477
g332
ag332
asVwhite medium small square\u224a white medium-small square
p478
(lp479
S'&#x25fd;'
p480
asVbicycle
p481
(lp482
g381
ag381
ag382
ag383
ag384
asVtired
p483
(lp484
V&#x1f62b;
p485
aS'&#x1f62b;'
p486
aS'&#x1f629;'
p487
asVjapanese
p488
(lp489
V&#x1f38f;
p490
aS'&#x1f479;'
p491
aS'&#x1f47a;'
p492
aS'&#x1f359;'
p493
aS'&#x1f361;'
p494
aS'&#x1f3e3;'
p495
aS'&#x1f3ef;'
p496
aS'&#x1f38b;'
p497
aS'&#x1f38d;'
p498
aS'&#x1f38e;'
p499
aS'&#x1f3b4;'
p500
aS'&#x1f3ee;'
p501
aS'&#x1f38c;'
p502
ag336
aS'&#x1f201;'
p503
aS'&#x1f202;'
p504
aS'&#x1f237;'
p505
aS'&#x1f236;'
p506
aS'&#x1f22f;'
p507
aS'&#x1f250;'
p508
aS'&#x1f239;'
p509
aS'&#x1f21a;'
p510
aS'&#x1f232;'
p511
asVhorn
p512
(lp513
V&#x1f40f;
p514
aS'&#x1f4ef;'
p515
asVnail
p516
(lp517
S'&#x1f485;'
p518
asVbroken heart
p519
(lp520
S'&#x1f494;'
p521
asVpanda
p522
(lp523
V&#x1f43c;
p524
aS'&#x1f43c;'
p525
asVshining
p526
(lp527
S'&#x1f31f;'
p528
asVblue
p529
(lp530
S'&#x1f630;'
p531
aS'&#x1f499;'
p532
aS'&#x1f4d8;'
p533
aS'&#x1f537;'
p534
aS'&#x1f539;'
p535
aS'&#x1f535;'
p536
asVhelmet with white cross
p537
(lp538
S'&#x26d1;'
p539
asVdesktop computer
p540
(lp541
S'&#x1f5a5;'
p542
asVcamera with flash
p543
(lp544
S'&#x1f4f8;'
p545
asVthunder
p546
(lp547
S'&#x26c8;'
p548
asVpanama
p549
(lp550
S'&#x1f1f5&#x1f1e6;'
p551
asVcooking
p552
(lp553
S'&#x1f373;'
p554
ag554
ag430
aS'&#x1f374;'
p555
aS'&#x1f52a;'
p556
aS'&#x1f3fa;'
p557
asVrevolver
p558
(lp559
S'&#x1f52b;'
p560
asVliberty
p561
(lp562
S'&#x1f5fd;'
p563
asVlights
p564
(lp565
V&#x1f306;
p566
asVperson bowing deeply\u224a person bowing
p567
(lp568
g399
asVnew
p569
(lp570
V&#x1f38d;
p571
aS'&#x1f195;'
p572
aS'&#x1f1f3&#x1f1e8;'
p573
aS'&#x1f1f3&#x1f1ff;'
p574
aS'&#x1f1f5&#x1f1ec;'
p575
asVupward
p576
(lp577
g353
aS'&#x1f4c8;'
p578
asVdisney
p579
(lp580
g396
asVfiji
p581
(lp582
S'&#x1f1eb&#x1f1ef;'
p583
asVherb
p584
(lp585
S'&#x1f33f;'
p586
ag586
asVchina
p587
(lp588
g524
aS'&#x1f1e8&#x1f1f3;'
p589
aS'&#x1f1ed&#x1f1f0;'
p590
aS'&#x1f1f2&#x1f1f4;'
p591
aS'&#x1f1f9&#x1f1fc;'
p592
asVflag for swaziland
p593
(lp594
S'&#x1f1f8&#x1f1ff;'
p595
asV100
p596
(lp597
S'&#x1f4af;'
p598
asVmoyai\u224a moai
p599
(lp600
S'&#x1f5ff;'
p601
asVcelebration
p602
(lp603
V&#x1f388;
p604
aS'&#x1f385;'
p605
aS'&#x1f64c;'
p606
aS'&#x1f393;'
p607
aS'&#x1f382;'
p608
ag420
aS'&#x1f384;'
p609
aS'&#x1f386;'
p610
aS'&#x1f387;'
p611
aS'&#x1f388;'
p612
aS'&#x1f389;'
p613
ag427
ag497
ag498
ag499
aS'&#x1f38f;'
p614
aS'&#x1f390;'
p615
aS'&#x1f391;'
p616
aS'&#x1f380;'
p617
aS'&#x1f381;'
p618
aS'&#x1f397;'
p619
aS'&#x1f396;'
p620
ag502
asVflag for canada
p621
(lp622
S'&#x1f1e8&#x1f1e6;'
p623
asVkids
p624
(lp625
g490
asVluggage
p626
(lp627
S'&#x1f6c5;'
p628
asVflag for aruba
p629
(lp630
S'&#x1f1e6&#x1f1fc;'
p631
asVoman
p632
(lp633
S'&#x1f1f4&#x1f1f2;'
p634
asVstudy
p635
(lp636
V&#x1f629;
p637
asVcredit
p638
(lp639
S'&#x1f4b3;'
p640
asVniue
p641
(lp642
S'&#x1f1f3&#x1f1fa;'
p643
asVflag for botswana
p644
(lp645
S'&#x1f1e7&#x1f1fc;'
p646
asVmilitary
p647
(lp648
g620
asVdrc
p649
(lp650
S'&#x1f1e8&#x1f1e9;'
p651
asVgolden
p652
(lp653
V&#x1f309;
p654
asVsecure
p655
(lp656
S'&#x1f510;'
p657
asVmyanmar
p658
(lp659
S'&#x1f1f2&#x1f1f2;'
p660
asVspooky
p661
(lp662
V&#x1f383;
p663
asVok hand sign
p664
(lp665
g223
ag224
ag225
ag226
ag227
asVlavatory
p666
(lp667
S'&#x1f6b9;'
p668
aS'&#x1f6ba;'
p669
aS'&#x1f6bb;'
p670
aS'&#x1f6be;'
p671
asVlandscape
p672
(lp673
S'&#x1f306;'
p674
asVdisappointed but relieved face
p675
(lp676
S'&#x1f625;'
p677
asVflag for lebanon
p678
(lp679
S'&#x1f1f1&#x1f1e7;'
p680
asVhospital
p681
(lp682
V&#x1f3e8;
p683
aS'&#x1f3e5;'
p684
ag684
asVqatar
p685
(lp686
S'&#x1f1f6&#x1f1e6;'
p687
asVflag for guinea
p688
(lp689
S'&#x1f1ec&#x1f1f3;'
p690
asVtm
p691
(lp692
S'&#x2122;'
p693
asVcouple with heart: man
p694
(lp695
S'&#x1f468&#x200d&#x2764&#xfe0f&#x200d&#x1f468;'
p696
asVpassport
p697
(lp698
S'&#x1f6c2;'
p699
asVflag for wallis & futuna
p700
(lp701
S'&#x1f1fc&#x1f1eb;'
p702
asVlorry
p703
(lp704
S'&#x1f69b;'
p705
asVfried shrimp
p706
(lp707
S'&#x1f364;'
p708
asValphabet
p709
(lp710
S'&#x1f524;'
p711
asVkeycap digit eight
p712
(lp713
S'&#x0038&#x20e3;'
p714
asVstraight edge
p715
(lp716
S'&#x1f4cf;'
p717
asVhurt
p718
(lp719
V&#x1f62d;
p720
aS'&#x1f915;'
p721
asVglass
p722
(lp723
S'&#x1f377;'
p724
aS'&#x1f378;'
p725
aS'&#x1f50d;'
p726
aS'&#x1f50e;'
p727
asVdeciduous
p728
(lp729
S'&#x1f333;'
p730
asVface with open mouth and cold sweat
p731
(lp732
g531
asVwhite small square
p733
(lp734
S'&#x25ab;'
p735
asVhole
p736
(lp737
S'&#x1f573;'
p738
ag738
aS'&#x26f3;'
p739
asVhold
p740
(lp741
S'&#x1f46b;'
p742
aS'&#x1f46c;'
p743
aS'&#x1f46d;'
p744
asVpouch
p745
(lp746
S'&#x1f45d;'
p747
ag747
asVchequered
p748
(lp749
S'&#x1f3c1;'
p750
asVtwo men holding hands
p751
(lp752
g743
asVword
p753
(lp754
g348
aS'&#x203c;'
p755
aS'&#x2049;'
p756
aS'&#x2753;'
p757
aS'&#x2754;'
p758
aS'&#x2755;'
p759
aS'&#x2757;'
p760
aS'&#x00a9;'
p761
aS'&#x00ae;'
p762
ag693
aS'&#x0023&#x20e3;'
p763
aS'&#x0030&#x20e3;'
p764
aS'&#x0031&#x20e3;'
p765
ag402
aS'&#x0033&#x20e3;'
p766
ag342
aS'&#x0035&#x20e3;'
p767
aS'&#x0036&#x20e3;'
p768
aS'&#x0037&#x20e3;'
p769
ag714
aS'&#x0039&#x20e3;'
p770
aS'&#x1f51f;'
p771
aS'&#x1f51e;'
p772
aS'&#x1f520;'
p773
aS'&#x1f521;'
p774
aS'&#x1f522;'
p775
aS'&#x1f523;'
p776
ag711
aS'&#x1f170;'
p777
aS'&#x1f18e;'
p778
aS'&#x1f171;'
p779
aS'&#x1f191;'
p780
aS'&#x1f192;'
p781
aS'&#x1f193;'
p782
aS'&#x2139;'
p783
aS'&#x1f194;'
p784
aS'&#x24c2;'
p785
ag572
aS'&#x1f196;'
p786
aS'&#x1f17e;'
p787
aS'&#x1f197;'
p788
aS'&#x1f17f;'
p789
aS'&#x1f198;'
p790
aS'&#x1f199;'
p791
aS'&#x1f19a;'
p792
ag503
ag504
ag505
ag506
ag507
ag508
ag509
ag510
ag511
aS'&#x1f251;'
p793
aS'&#x1f238;'
p794
aS'&#x1f234;'
p795
aS'&#x1f233;'
p796
aS'&#x3297;'
p797
aS'&#x3299;'
p798
aS'&#x1f23a;'
p799
aS'&#x1f235;'
p800
asVcross mark
p801
(lp802
S'&#x274c;'
p803
asVblue book
p804
(lp805
g533
asVsomber
p806
(lp807
g720
asVcandlestick
p808
(lp809
S'&#x1f54e;'
p810
asVatom symbol
p811
(lp812
S'&#x269b;'
p813
asVlocker
p814
(lp815
g628
asVbungalow
p816
(lp817
g356
asVwavy dash
p818
(lp819
S'&#x3030;'
p820
asVgrenada
p821
(lp822
S'&#x1f1ec&#x1f1e9;'
p823
asVpouting cat face
p824
(lp825
S'&#x1f63e;'
p826
asVflag for norfolk island
p827
(lp828
S'&#x1f1f3&#x1f1eb;'
p829
asVfortress
p830
(lp831
g396
asVspeaking head in silhouette\u224a speaking head
p832
(lp833
S'&#x1f5e3;'
p834
asVhorizontal traffic light
p835
(lp836
S'&#x1f6a5;'
p837
asVteller
p838
(lp839
S'&#x1f3e7;'
p840
asVserpent
p841
(lp842
S'&#x1f40d;'
p843
aS'&#x26ce;'
p844
asVclimax
p845
(lp846
V&#x1f389;
p847
asVdolphin
p848
(lp849
S'&#x1f42c;'
p850
ag850
asVindia
p851
(lp852
S'&#x1f1ee&#x1f1f3;'
p853
asVfax
p854
(lp855
S'&#x1f4e0;'
p856
asVhoney
p857
(lp858
V&#x1f41d;
p859
aS'&#x1f36f;'
p860
asVcurrency
p861
(lp862
S'&#x1f4b4;'
p863
aS'&#x1f4b5;'
p864
aS'&#x1f4b6;'
p865
aS'&#x1f4b7;'
p866
ag353
aS'&#x1f4b1;'
p867
aS'&#x1f4b2;'
p868
asVcandelabrum
p869
(lp870
g810
asVlitterbox
p871
(lp872
S'&#x1f6ae;'
p873
asVuae
p874
(lp875
S'&#x1f1e6&#x1f1ea;'
p876
asVrevolving hearts
p877
(lp878
S'&#x1f49e;'
p879
asVceremony
p880
(lp881
V&#x1f393;
p882
ag616
asVho ho ho
p883
(lp884
V&#x1f385;
p885
asVsunrise over mountains
p886
(lp887
S'&#x1f304;'
p888
asVend
p889
(lp890
S'&#x1f51a;'
p891
asVlevel slider
p892
(lp893
S'&#x1f39a;'
p894
asVtravel
p895
(lp896
g439
aS'&#x1f682;'
p897
aS'&#x1f683;'
p898
aS'&#x1f684;'
p899
aS'&#x1f685;'
p900
aS'&#x1f686;'
p901
aS'&#x1f687;'
p902
ag456
aS'&#x1f689;'
p903
aS'&#x1f68a;'
p904
aS'&#x1f69d;'
p905
aS'&#x1f69e;'
p906
aS'&#x1f68b;'
p907
aS'&#x1f68c;'
p908
aS'&#x1f68d;'
p909
ag362
aS'&#x1f68f;'
p910
aS'&#x1f690;'
p911
aS'&#x1f691;'
p912
aS'&#x1f692;'
p913
aS'&#x1f693;'
p914
aS'&#x1f694;'
p915
aS'&#x1f695;'
p916
aS'&#x1f696;'
p917
aS'&#x1f697;'
p918
aS'&#x1f698;'
p919
aS'&#x1f699;'
p920
aS'&#x1f69a;'
p921
ag705
aS'&#x1f69c;'
p922
ag381
aS'&#x26fd;'
p923
aS'&#x1f6e3;'
p924
aS'&#x1f6e4;'
p925
aS'&#x1f6a8;'
p926
ag837
aS'&#x1f6a6;'
p927
aS'&#x1f6a7;'
p928
aS'&#x2693;'
p929
aS'&#x26f5;'
p930
aS'&#x1f6a3;'
p931
aS'&#x1f6a4;'
p932
aS'&#x1f6f3;'
p933
aS'&#x26f4;'
p934
aS'&#x1f6e5;'
p935
aS'&#x1f6a2;'
p936
aS'&#x2708;'
p937
aS'&#x1f6e9;'
p938
aS'&#x1f6eb;'
p939
aS'&#x1f6ec;'
p940
aS'&#x1f4ba;'
p941
aS'&#x1f681;'
p942
ag444
aS'&#x1f6a0;'
p943
aS'&#x1f6a1;'
p944
aS'&#x1f680;'
p945
aS'&#x1f6aa;'
p946
aS'&#x1f6bd;'
p947
aS'&#x1f6bf;'
p948
aS'&#x1f6c0;'
p949
aS'&#x1f6c1;'
p950
aS'&#x26f1;'
p951
ag739
aS'&#x26f8;'
p952
aS'&#x26f7;'
p953
aS'&#x1f3c7;'
p954
aS'&#x1f3ca;'
p955
aS'&#x26f9;'
p956
ag382
ag383
aS'&#x1f3ce;'
p957
aS'&#x1f3cd;'
p958
aS'&#x1f6a9;'
p959
ag601
ag873
aS'&#x1f6b0;'
p960
aS'&#x267f;'
p961
ag668
ag669
ag670
aS'&#x1f6bc;'
p962
ag671
ag699
aS'&#x1f6c3;'
p963
aS'&#x1f6c4;'
p964
ag628
aS'&#x26a0;'
p965
aS'&#x1f6b8;'
p966
aS'&#x26d4;'
p967
aS'&#x1f6ab;'
p968
ag384
aS'&#x1f6ad;'
p969
aS'&#x1f6af;'
p970
aS'&#x1f6b1;'
p971
aS'&#x1f6b7;'
p972
aS'&#x2b55;'
p973
asVartist palette
p974
(lp975
S'&#x1f3a8;'
p976
asVhot
p977
(lp978
S'&#x1f336;'
p979
aS'&#x2615;'
p980
aS'&#x2668;'
p981
asVblack telephone\u224a telephone
p982
(lp983
S'&#x260e;'
p984
asVcat face
p985
(lp986
S'&#x1f431;'
p987
asVgate
p988
(lp989
g654
asVheavy heart exclamation mark ornament
p990
(lp991
S'&#x2763;'
p992
asVbeach
p993
(lp994
V&#x1f41a;
p995
aS'&#x1f3d6;'
p996
asVmountain cableway
p997
(lp998
g943
asVpizza
p999
(lp1000
S'&#x1f355;'
p1001
asVflag for st. vincent & grenadines
p1002
(lp1003
S'&#x1f1fb&#x1f1e8;'
p1004
asVflag for antigua & barbuda
p1005
(lp1006
S'&#x1f1e6&#x1f1ec;'
p1007
asVbriefcase
p1008
(lp1009
S'&#x1f4bc;'
p1010
ag1010
asVbeauty
p1011
(lp1012
S'&#x1f487;'
p1013
asVlower left ballpoint pen\u224a pen
p1014
(lp1015
S'&#x1f58a;'
p1016
asVcustoms
p1017
(lp1018
g963
ag963
asVheartpulse
p1019
(lp1020
S'&#x1f497;'
p1021
asVsparkles
p1022
(lp1023
S'&#x2728;'
p1024
asVshirt
p1025
(lp1026
S'&#x1f455;'
p1027
aS'&#x1f3bd;'
p1028
asVstronghold
p1029
(lp1030
g396
asVcosmonaut
p1031
(lp1032
g453
asVflag for tanzania
p1033
(lp1034
S'&#x1f1f9&#x1f1ff;'
p1035
asVfisted hand sign\u224a oncoming fist
p1036
(lp1037
S'&#x1f44a;'
p1038
asVwink
p1039
(lp1040
V&#x1f61c;
p1041
aS'&#x1f609;'
p1042
aS'&#x1f61c;'
p1043
asVgreen
p1044
(lp1045
S'&#x1f49a;'
p1046
aS'&#x1f34f;'
p1047
aS'&#x1f4d7;'
p1048
ag336
asVunexpressive
p1049
(lp1050
S'&#x1f611;'
p1051
asVflag for burkina faso
p1052
(lp1053
S'&#x1f1e7&#x1f1eb;'
p1054
asVwind
p1055
(lp1056
V&#x1f390;
p1057
aS'&#x1f343;'
p1058
aS'&#x1f32c;'
p1059
ag615
asVwine
p1060
(lp1061
g724
asVsalon
p1062
(lp1063
S'&#x1f486;'
p1064
asVoffice
p1065
(lp1066
S'&#x1f3e2;'
p1067
ag495
aS'&#x1f3e4;'
p1068
aS'&#x1f5bc;'
p1069
ag941
ag984
aS'&#x1f4df;'
p1070
ag856
aS'&#x1f4bb;'
p1071
ag542
aS'&#x1f5a8;'
p1072
aS'&#x1f5b1;'
p1073
aS'&#x1f5b2;'
p1074
aS'&#x1f4bd;'
p1075
aS'&#x1f4be;'
p1076
aS'&#x1f4bf;'
p1077
aS'&#x1f4c0;'
p1078
aS'&#x1f4e1;'
p1079
aS'&#x1f4d4;'
p1080
aS'&#x1f4d5;'
p1081
aS'&#x1f4d6;'
p1082
ag1048
ag533
aS'&#x1f4d9;'
p1083
aS'&#x1f4da;'
p1084
aS'&#x1f4d3;'
p1085
aS'&#x1f4d2;'
p1086
aS'&#x1f4c3;'
p1087
aS'&#x1f4dc;'
p1088
aS'&#x1f4c4;'
p1089
aS'&#x1f4d1;'
p1090
aS'&#x1f4b0;'
p1091
ag863
ag864
ag865
ag866
aS'&#x1f4b8;'
p1092
ag640
ag353
ag867
ag868
aS'&#x2709;'
p1093
aS'&#x1f4e7;'
p1094
aS'&#x1f4e8;'
p1095
aS'&#x1f4e9;'
p1096
aS'&#x1f4e4;'
p1097
aS'&#x1f4e5;'
p1098
aS'&#x1f4e6;'
p1099
aS'&#x1f4eb;'
p1100
aS'&#x1f4ea;'
p1101
aS'&#x1f4ec;'
p1102
aS'&#x1f4ed;'
p1103
aS'&#x1f4ee;'
p1104
aS'&#x270f;'
p1105
aS'&#x2712;'
p1106
aS'&#x1f58b;'
p1107
ag1016
aS'&#x1f58c;'
p1108
aS'&#x1f58d;'
p1109
aS'&#x1f4dd;'
p1110
ag1010
aS'&#x1f4c1;'
p1111
aS'&#x1f4c2;'
p1112
aS'&#x1f5c2;'
p1113
aS'&#x1f4c5;'
p1114
aS'&#x1f4c6;'
p1115
aS'&#x1f5d2;'
p1116
aS'&#x1f5d3;'
p1117
aS'&#x1f4c7;'
p1118
ag578
aS'&#x1f4c9;'
p1119
aS'&#x1f4ca;'
p1120
aS'&#x1f4cb;'
p1121
aS'&#x1f4cc;'
p1122
aS'&#x1f4cd;'
p1123
aS'&#x1f4ce;'
p1124
aS'&#x1f587;'
p1125
ag717
aS'&#x1f4d0;'
p1126
aS'&#x2702;'
p1127
aS'&#x1f5c3;'
p1128
aS'&#x1f5c4;'
p1129
aS'&#x1f5d1;'
p1130
aS'&#x1f4db;'
p1131
ag598
asVclapper
p1132
(lp1133
S'&#x1f3ac;'
p1134
asVflag for namibia
p1135
(lp1136
S'&#x1f1f3&#x1f1e6;'
p1137
asVsatisfied
p1138
(lp1139
V&#x1f60c;
p1140
aS'&#x1f606;'
p1141
asVkissing face
p1142
(lp1143
S'&#x1f617;'
p1144
asVseychelles
p1145
(lp1146
S'&#x1f1f8&#x1f1e8;'
p1147
asVflag for qatar
p1148
(lp1149
g687
asVpersevering face
p1150
(lp1151
S'&#x1f623;'
p1152
asVjapan
p1153
(lp1154
V&#x1f38e;
p1155
aS'&#x1f5fe;'
p1156
aS'&#x1f1ef&#x1f1f5;'
p1157
asVwhite up pointing index\u224a index pointing up
p1158
(lp1159
S'&#x261d;'
p1160
asVflag for dominican republic
p1161
(lp1162
S'&#x1f1e9&#x1f1f4;'
p1163
asV2:00
p1164
(lp1165
S'&#x1f551;'
p1166
asVbackpack
p1167
(lp1168
g439
asVrecreational
p1169
(lp1170
g920
asVmoon viewing ceremony\u224a moon ceremony
p1171
(lp1172
g616
asVflag for ecuador
p1173
(lp1174
S'&#x1f1ea&#x1f1e8;'
p1175
asVimp
p1176
(lp1177
S'&#x1f47f;'
p1178
ag1178
asVpersonal computer\u224a laptop computer
p1179
(lp1180
g1071
asVkimono
p1181
(lp1182
S'&#x1f458;'
p1183
ag1183
asVsavory
p1184
(lp1185
V&#x1f60b;
p1186
asVnegative squared latin capital letter a\u224a a button
p1187
(lp1188
g777
asVperson raising both hands in celebration
p1189
(lp1190
g138
ag139
ag140
ag141
ag142
asVface with head-bandage
p1191
(lp1192
g721
asVkuwait
p1193
(lp1194
S'&#x1f1f0&#x1f1fc;'
p1195
asVversus
p1196
(lp1197
g792
asVkeycap digit five
p1198
(lp1199
g767
asVcoffee
p1200
(lp1201
g980
asVbelarus
p1202
(lp1203
S'&#x1f1e7&#x1f1fe;'
p1204
asVtop with upwards arrow above\u224a top arrow
p1205
(lp1206
S'&#x1f51d;'
p1207
asVbreak
p1208
(lp1209
g521
asVroasted sweet potato
p1210
(lp1211
S'&#x1f360;'
p1212
asVbaggage
p1213
(lp1214
g964
ag628
asVmanicure
p1215
(lp1216
g518
asVwaning gibbous moon symbol\u224a waning gibbous moon
p1217
(lp1218
S'&#x1f316;'
p1219
asVsoothing
p1220
(lp1221
g1057
asVbank
p1222
(lp1223
S'&#x1f3e6;'
p1224
ag1224
ag863
ag864
ag865
ag866
ag1092
ag640
ag353
ag867
ag840
asVbread
p1225
(lp1226
S'&#x1f35e;'
p1227
ag1227
asVnetherlands
p1228
(lp1229
S'&#x1f1e7&#x1f1f6;'
p1230
aS'&#x1f1f3&#x1f1f1;'
p1231
asVinput symbol for numbers\u224a input numbers
p1232
(lp1233
g775
asVmeat
p1234
(lp1235
S'&#x1f356;'
p1236
asVbosnia
p1237
(lp1238
S'&#x1f1e7&#x1f1e6;'
p1239
asVbrightness
p1240
(lp1241
S'&#x1f505;'
p1242
aS'&#x1f506;'
p1243
asVcapricorn
p1244
(lp1245
S'&#x1f410;'
p1246
aS'&#x2651;'
p1247
ag1247
asVblack rightwards arrow\u224a right arrow
p1248
(lp1249
S'&#x27a1;'
p1250
asVcongo
p1251
(lp1252
g651
aS'&#x1f1e8&#x1f1ec;'
p1253
asVvictory
p1254
(lp1255
g847
aS'&#x270c;'
p1256
asVarrow
p1257
(lp1258
S'&#x1f498;'
p1259
aS'&#x1f4f2;'
p1260
ag1096
aS'&#x1f3f9;'
p1261
aS'&#x2b06;'
p1262
aS'&#x2197;'
p1263
ag1250
aS'&#x2198;'
p1264
aS'&#x2b07;'
p1265
aS'&#x2199;'
p1266
aS'&#x2b05;'
p1267
aS'&#x2196;'
p1268
aS'&#x2195;'
p1269
aS'&#x2194;'
p1270
aS'&#x21a9;'
p1271
aS'&#x21aa;'
p1272
aS'&#x2934;'
p1273
aS'&#x2935;'
p1274
aS'&#x1f503;'
p1275
aS'&#x1f504;'
p1276
aS'&#x1f519;'
p1277
ag891
aS'&#x1f51b;'
p1278
aS'&#x1f51c;'
p1279
ag1207
aS'&#x1f500;'
p1280
aS'&#x1f501;'
p1281
aS'&#x1f502;'
p1282
aS'&#x25b6;'
p1283
aS'&#x23e9;'
p1284
aS'&#x23ed;'
p1285
aS'&#x23ef;'
p1286
aS'&#x25c0;'
p1287
aS'&#x23ea;'
p1288
aS'&#x23ee;'
p1289
aS'&#x1f53c;'
p1290
aS'&#x23eb;'
p1291
ag325
aS'&#x23ec;'
p1292
asVvolcano
p1293
(lp1294
S'&#x1f30b;'
p1295
ag1295
asVbone
p1296
(lp1297
g1236
aS'&#x1f357;'
p1298
asVluck
p1299
(lp1300
g571
asVbasketball and hoop\u224a basketball
p1301
(lp1302
S'&#x1f3c0;'
p1303
asVangola
p1304
(lp1305
S'&#x1f1e6&#x1f1f4;'
p1306
asVtelescope
p1307
(lp1308
S'&#x1f52d;'
p1309
ag1309
asVopen hands sign\u224a open hands
p1310
(lp1311
S'&#x1f450;'
p1312
asVprawn
p1313
(lp1314
g708
asVclock face one oclock\u224a one o\u2019clock
p1315
(lp1316
S'&#x1f550;'
p1317
asVsatchel
p1318
(lp1319
g439
ag440
asVsmiling face with open mouth
p1320
(lp1321
S'&#x1f603;'
p1322
asVlifter
p1323
(lp1324
S'&#x1f3cb;'
p1325
asVdawn
p1326
(lp1327
g408
asVeighteen
p1328
(lp1329
g772
asVrv
p1330
(lp1331
g920
asVideograph
p1332
(lp1333
g797
ag798
asVhushed
p1334
(lp1335
S'&#x1f62f;'
p1336
asVmotel
p1337
(lp1338
g683
asVcentral african republic
p1339
(lp1340
S'&#x1f1e8&#x1f1eb;'
p1341
asVshinkansen
p1342
(lp1343
g899
ag900
asVmoney bag
p1344
(lp1345
g1091
asVsparkle
p1346
(lp1347
S'&#x1f496;'
p1348
ag528
ag611
ag1024
aS'&#x2747;'
p1349
ag1349
asVzap
p1350
(lp1351
g368
asVmedicine
p1352
(lp1353
S'&#x1f637;'
p1354
ag684
aS'&#x1f489;'
p1355
aS'&#x1f48a;'
p1356
asVsurprise
p1357
(lp1358
V&#x1f632;
p1359
asVvenezuela
p1360
(lp1361
S'&#x1f1fb&#x1f1ea;'
p1362
asVindependence
p1363
(lp1364
V&#x1f386;
p1365
asVsheep
p1366
(lp1367
g514
aS'&#x1f40f;'
p1368
aS'&#x1f411;'
p1369
ag1369
asVarrow pointing rightwards then curving upwards\u224a right arrow curving up
p1370
(lp1371
g1273
asVbarrier
p1372
(lp1373
g928
asVflag for mayotte
p1374
(lp1375
S'&#x1f1fe&#x1f1f9;'
p1376
asVfree
p1377
(lp1378
g782
asVfour leaf clover
p1379
(lp1380
g339
asVrain
p1381
(lp1382
g548
aS'&#x1f326;'
p1383
aS'&#x1f327;'
p1384
aS'&#x1f308;'
p1385
aS'&#x1f302;'
p1386
aS'&#x2602;'
p1387
aS'&#x2614;'
p1388
ag951
asVgrapes
p1389
(lp1390
S'&#x1f347;'
p1391
asVbiohazard sign\u224a biohazard
p1392
(lp1393
S'&#x2623;'
p1394
asVlollipop
p1395
(lp1396
S'&#x1f36d;'
p1397
ag1397
asVbirdie
p1398
(lp1399
S'&#x1f3f8;'
p1400
asVflag for philippines
p1401
(lp1402
S'&#x1f1f5&#x1f1ed;'
p1403
asVatm
p1404
(lp1405
g840
asVface with ok gesture
p1406
(lp1407
g118
ag119
ag120
ag121
ag122
asVgambia
p1408
(lp1409
S'&#x1f1ec&#x1f1f2;'
p1410
asVplaying card black joker\u224a joker
p1411
(lp1412
S'&#x1f0cf;'
p1413
asV+1
p1414
(lp1415
S'&#x1f44d;'
p1416
asVmalawi
p1417
(lp1418
S'&#x1f1f2&#x1f1fc;'
p1419
asVflag for st. helena
p1420
(lp1421
S'&#x1f1f8&#x1f1ed;'
p1422
asVloud
p1423
(lp1424
S'&#x1f50a;'
p1425
aS'&#x1f4e2;'
p1426
asVflag for lithuania
p1427
(lp1428
S'&#x1f1f1&#x1f1f9;'
p1429
asVnaughty
p1430
(lp1431
g885
asVsuspension
p1432
(lp1433
g654
ag444
asVblack left-pointing double triangle with vertical bar\u224a last track button
p1434
(lp1435
g1289
asVhoop
p1436
(lp1437
g1303
asVsoccer ball
p1438
(lp1439
S'&#x26bd;'
p1440
asVflag for british virgin islands
p1441
(lp1442
S'&#x1f1fb&#x1f1ec;'
p1443
asVblack right-pointing triangle with double vertical bar\u224a play or pause button
p1444
(lp1445
g1286
asVfantasy
p1446
(lp1447
S'&#x1f607;'
p1448
aS'&#x1f608;'
p1449
ag1178
ag491
ag492
aS'&#x1f47b;'
p1450
aS'&#x1f47d;'
p1451
aS'&#x1f47e;'
p1452
aS'&#x1f478;'
p1453
ag605
aS'&#x1f47c;'
p1454
aS'&#x1f52e;'
p1455
asVflag for marshall islands
p1456
(lp1457
S'&#x1f1f2&#x1f1ed;'
p1458
asVdelicious
p1459
(lp1460
g1186
aS'&#x1f60b;'
p1461
asVscissors
p1462
(lp1463
g1127
asVcomic
p1464
(lp1465
S'&#x1f4a9;'
p1466
aS'&#x1f4aa;'
p1467
ag348
aS'&#x1f4a2;'
p1468
aS'&#x1f4a3;'
p1469
aS'&#x1f4a5;'
p1470
aS'&#x1f4a6;'
p1471
aS'&#x1f4a8;'
p1472
aS'&#x1f4ab;'
p1473
aS'&#x1f4ac;'
p1474
ag423
aS'&#x1f4a7;'
p1475
aS'&#x1f4a1;'
p1476
aS'&#x1f4a0;'
p1477
asVantilles
p1478
(lp1479
S'&#x1f1e8&#x1f1fc;'
p1480
asVbasketball
p1481
(lp1482
g1303
asVsquared sos
p1483
(lp1484
g790
asVtop
p1485
(lp1486
S'&#x1f3a9;'
p1487
ag1207
asVflag for seychelles
p1488
(lp1489
g1147
asVgirls
p1490
(lp1491
g1155
asVdizzy face
p1492
(lp1493
S'&#x1f635;'
p1494
asVbactrian
p1495
(lp1496
S'&#x1f42b;'
p1497
asVhundred
p1498
(lp1499
g598
asVfarming
p1500
(lp1501
g571
asVrailway car
p1502
(lp1503
g898
asVemblem
p1504
(lp1505
S'&#x1f531;'
p1506
asVswaziland
p1507
(lp1508
g595
asVtool
p1509
(lp1510
g556
ag557
ag929
aS'&#x1f525;'
p1511
ag726
ag727
aS'&#x1f52c;'
p1512
ag1309
aS'&#x1f526;'
p1513
ag1127
aS'&#x1f528;'
p1514
aS'&#x26cf;'
p1515
aS'&#x2692;'
p1516
aS'&#x1f6e0;'
p1517
ag560
ag1261
aS'&#x1f527;'
p1518
aS'&#x1f529;'
p1519
aS'&#x2699;'
p1520
aS'&#x1f5dc;'
p1521
aS'&#x2697;'
p1522
aS'&#x2696;'
p1523
ag1355
ag1455
ag336
ag1506
asVmoney with wings
p1524
(lp1525
g1092
asVpalestine
p1526
(lp1527
S'&#x1f1f5&#x1f1f8;'
p1528
asVbadminton racquet and shuttlecock\u224a badminton
p1529
(lp1530
g1400
asVperson bowing deeply
p1531
(lp1532
g133
ag134
ag135
ag136
ag137
asVweary face
p1533
(lp1534
g487
asVminibus
p1535
(lp1536
g911
ag911
asVflag for france
p1537
(lp1538
S'&#x1f1eb&#x1f1f7;'
p1539
asVtarget
p1540
(lp1541
S'&#x1f3af;'
p1542
asVhike
p1543
(lp1544
g439
aS'&#x1f6b6;'
p1545
asVbloated
p1546
(lp1547
V&#x1f40b;
p1548
asVski and ski boot\u224a skis
p1549
(lp1550
S'&#x1f3bf;'
p1551
asVtree
p1552
(lp1553
V&#x1f38b;
p1554
aS'&#x1f332;'
p1555
ag730
aS'&#x1f334;'
p1556
ag609
ag497
asVfrench fries
p1557
(lp1558
S'&#x1f35f;'
p1559
asVclock face two oclock\u224a two o\u2019clock
p1560
(lp1561
g1166
asVshower
p1562
(lp1563
g948
ag948
asVflag for iceland
p1564
(lp1565
S'&#x1f1ee&#x1f1f8;'
p1566
asVsolomon
p1567
(lp1568
S'&#x1f1f8&#x1f1e7;'
p1569
asVsilly
p1570
(lp1571
V&#x1f412;
p1572
asVendure
p1573
(lp1574
V&#x1f623;
p1575
asVletters
p1576
(lp1577
g773
ag774
ag711
asVminus
p1578
(lp1579
S'&#x2796;'
p1580
asVbridge
p1581
(lp1582
g654
aS'&#x1f309;'
p1583
asVhoney pot
p1584
(lp1585
g860
asVpollination
p1586
(lp1587
g859
asVkaaba
p1588
(lp1589
S'&#x1f54b;'
p1590
ag1590
asVrunner
p1591
(lp1592
S'&#x1f3c3;'
p1593
ag1593
ag153
ag154
ag155
ag156
ag157
asVram
p1594
(lp1595
g514
ag1368
ag1368
aS'&#x2648;'
p1596
asVmining
p1597
(lp1598
g1515
asVrat
p1599
(lp1600
V&#x1f400;
p1601
aS'&#x1f400;'
p1602
ag1602
asVpensive face
p1603
(lp1604
S'&#x1f614;'
p1605
asVflag for poland
p1606
(lp1607
S'&#x1f1f5&#x1f1f1;'
p1608
asVjapanese symbol for beginner
p1609
(lp1610
g336
asVbotswana
p1611
(lp1612
g646
asVspade
p1613
(lp1614
S'&#x2660;'
p1615
asVwhite down pointing backhand index\u224a backhand index pointing down
p1616
(lp1617
S'&#x1f447;'
p1618
asVdouble vertical bar\u224a pause button
p1619
(lp1620
S'&#x23f8;'
p1621
asVnecktie
p1622
(lp1623
S'&#x1f454;'
p1624
ag1624
asVsnow
p1625
(lp1626
S'&#x1f3d4;'
p1627
aS'&#x1f328;'
p1628
aS'&#x2744;'
p1629
aS'&#x2603;'
p1630
aS'&#x26c4;'
p1631
ag1551
ag953
aS'&#x1f3c2;'
p1632
asVwater wave
p1633
(lp1634
S'&#x1f30a;'
p1635
asVmonorail
p1636
(lp1637
g905
ag905
asVfutuna
p1638
(lp1639
g702
asVleft luggage
p1640
(lp1641
g628
ag628
asVflag for guyana
p1642
(lp1643
S'&#x1f1ec&#x1f1fe;'
p1644
asVflag for montenegro
p1645
(lp1646
S'&#x1f1f2&#x1f1ea;'
p1647
asVsnowflake
p1648
(lp1649
g1629
ag1629
asVpaintbrush
p1650
(lp1651
g1108
asVcrossbones
p1652
(lp1653
S'&#x2620;'
p1654
asVkiss mark
p1655
(lp1656
S'&#x1f48b;'
p1657
asVflag for lesotho
p1658
(lp1659
S'&#x1f1f1&#x1f1f8;'
p1660
asVmaiden
p1661
(lp1662
S'&#x1f467;'
p1663
aS'&#x264d;'
p1664
asViceland
p1665
(lp1666
g1566
asVobject
p1667
(lp1668
g1466
aS'&#x1f49d;'
p1669
ag1469
ag1471
ag1472
ag1474
ag423
aS'&#x1f453;'
p1670
aS'&#x1f576;'
p1671
ag1624
ag1027
ag390
aS'&#x1f457;'
p1672
ag1183
aS'&#x1f459;'
p1673
aS'&#x1f45a;'
p1674
aS'&#x1f45b;'
p1675
aS'&#x1f45c;'
p1676
ag747
aS'&#x1f6cd;'
p1677
ag440
aS'&#x1f45e;'
p1678
aS'&#x1f45f;'
p1679
aS'&#x1f460;'
p1680
aS'&#x1f461;'
p1681
aS'&#x1f462;'
p1682
aS'&#x1f451;'
p1683
aS'&#x1f452;'
p1684
ag1487
ag607
aS'&#x1f4ff;'
p1685
aS'&#x1f484;'
p1686
aS'&#x1f48d;'
p1687
aS'&#x1f48e;'
p1688
aS'&#x1f577;'
p1689
aS'&#x1f578;'
p1690
aS'&#x1f490;'
p1691
aS'&#x1f4ae;'
p1692
ag1391
aS'&#x1f348;'
p1693
aS'&#x1f349;'
p1694
aS'&#x1f34a;'
p1695
aS'&#x1f34b;'
p1696
aS'&#x1f34c;'
p1697
aS'&#x1f34d;'
p1698
aS'&#x1f34e;'
p1699
ag1047
aS'&#x1f350;'
p1700
aS'&#x1f351;'
p1701
aS'&#x1f352;'
p1702
aS'&#x1f353;'
p1703
aS'&#x1f345;'
p1704
aS'&#x1f346;'
p1705
aS'&#x1f33d;'
p1706
ag1227
ag1236
ag1298
aS'&#x1f354;'
p1707
ag1559
ag1001
ag554
aS'&#x1f372;'
p1708
aS'&#x1f371;'
p1709
aS'&#x1f358;'
p1710
ag493
aS'&#x1f35a;'
p1711
aS'&#x1f35b;'
p1712
aS'&#x1f35c;'
p1713
aS'&#x1f35d;'
p1714
ag1212
aS'&#x1f362;'
p1715
aS'&#x1f363;'
p1716
ag708
aS'&#x1f365;'
p1717
ag494
aS'&#x1f366;'
p1718
aS'&#x1f367;'
p1719
aS'&#x1f368;'
p1720
aS'&#x1f369;'
p1721
aS'&#x1f36a;'
p1722
ag608
aS'&#x1f370;'
p1723
aS'&#x1f36b;'
p1724
aS'&#x1f36c;'
p1725
ag1397
aS'&#x1f36e;'
p1726
ag860
aS'&#x1f37c;'
p1727
ag980
ag436
aS'&#x1f376;'
p1728
ag724
ag725
aS'&#x1f379;'
p1729
aS'&#x1f37a;'
p1730
aS'&#x1f37b;'
p1731
ag430
ag555
ag556
aS'&#x26f2;'
p1732
aS'&#x26fa;'
p1733
aS'&#x1f3ad;'
p1734
ag1069
ag976
aS'&#x1f3b0;'
p1735
ag941
aS'&#x1f6ce;'
p1736
ag946
ag349
ag350
aS'&#x1f6cb;'
p1737
ag947
ag948
ag949
ag950
aS'&#x231b;'
p1738
ag450
aS'&#x231a;'
p1739
aS'&#x23f0;'
p1740
aS'&#x23f1;'
p1741
aS'&#x23f2;'
p1742
aS'&#x1f570;'
p1743
ag528
aS'&#x2604;'
p1744
ag1511
ag1475
ag420
ag609
ag610
ag611
ag1024
ag612
ag613
ag427
ag497
ag498
ag499
ag614
ag615
ag616
ag617
ag618
ag619
aS'&#x1f39f;'
p1745
aS'&#x1f3ab;'
p1746
ag620
ag447
aS'&#x1f3c5;'
p1747
ag1440
aS'&#x26be;'
p1748
ag1303
aS'&#x1f3d0;'
p1749
aS'&#x1f3c8;'
p1750
aS'&#x1f3c9;'
p1751
aS'&#x1f3be;'
p1752
aS'&#x1f3b1;'
p1753
aS'&#x1f3b3;'
p1754
aS'&#x1f3cf;'
p1755
aS'&#x1f3d1;'
p1756
aS'&#x1f3d2;'
p1757
aS'&#x1f3d3;'
p1758
ag1400
ag739
aS'&#x1f3a3;'
p1759
ag1551
ag1542
aS'&#x1f3ae;'
p1760
aS'&#x1f579;'
p1761
aS'&#x1f3b2;'
p1762
ag1413
aS'&#x1f004;'
p1763
ag500
aS'&#x1f507;'
p1764
aS'&#x1f508;'
p1765
aS'&#x1f509;'
p1766
ag1425
ag1426
aS'&#x1f4e3;'
p1767
ag515
aS'&#x1f514;'
p1768
aS'&#x1f515;'
p1769
aS'&#x1f3bc;'
p1770
aS'&#x1f3b5;'
p1771
aS'&#x1f3b6;'
p1772
aS'&#x1f399;'
p1773
ag894
aS'&#x1f39b;'
p1774
aS'&#x1f3a4;'
p1775
aS'&#x1f3a7;'
p1776
aS'&#x1f4fb;'
p1777
aS'&#x1f3b7;'
p1778
aS'&#x1f3b8;'
p1779
aS'&#x1f3b9;'
p1780
aS'&#x1f3ba;'
p1781
aS'&#x1f3bb;'
p1782
aS'&#x1f4f1;'
p1783
ag1260
ag984
aS'&#x1f4de;'
p1784
ag1070
ag856
aS'&#x1f50b;'
p1785
ag369
ag1071
ag542
ag1072
aS'&#x2328;'
p1786
ag1073
ag1074
ag1075
ag1076
ag1077
ag1078
aS'&#x1f3a5;'
p1787
aS'&#x1f39e;'
p1788
aS'&#x1f4fd;'
p1789
ag1134
aS'&#x1f4fa;'
p1790
aS'&#x1f4f7;'
p1791
ag545
aS'&#x1f4f9;'
p1792
aS'&#x1f4fc;'
p1793
ag726
ag727
ag1512
ag1309
ag1079
aS'&#x1f56f;'
p1794
ag1476
ag1513
ag1080
ag1081
ag1082
ag1048
ag533
ag1083
ag1084
ag1085
ag1086
ag1087
ag1088
ag1089
aS'&#x1f4f0;'
p1795
aS'&#x1f5de;'
p1796
ag1090
aS'&#x1f516;'
p1797
aS'&#x1f3f7;'
p1798
ag1091
ag863
ag864
ag865
ag866
ag1092
ag640
ag353
ag867
ag868
ag1093
ag1094
ag1095
ag1096
ag1097
ag1098
ag1099
ag1100
ag1101
ag1102
ag1103
ag1104
aS'&#x1f5f3;'
p1799
ag1105
ag1106
ag1107
ag1016
ag1108
ag1109
ag1110
ag1010
ag1111
ag1112
ag1113
ag1114
ag1115
ag1116
ag1117
ag1118
ag578
ag1119
ag1120
ag1121
ag1122
ag1123
ag1124
ag1125
ag717
ag1126
ag1127
ag1128
ag1129
ag1130
aS'&#x1f512;'
p1800
aS'&#x1f513;'
p1801
aS'&#x1f50f;'
p1802
ag657
aS'&#x1f511;'
p1803
aS'&#x1f5dd;'
p1804
ag1514
ag1515
ag1516
ag1517
aS'&#x1f5e1;'
p1805
aS'&#x2694;'
p1806
ag560
ag1261
aS'&#x1f6e1;'
p1807
ag1518
ag1519
ag1520
ag1521
ag1522
ag1523
aS'&#x1f517;'
p1808
aS'&#x26d3;'
p1809
ag1355
ag1356
ag750
aS'&#x1f3f3;'
p1810
aS'&#x1f3f4;'
p1811
ag959
ag502
aS'&#x1f6ac;'
p1812
aS'&#x26b0;'
p1813
aS'&#x26b1;'
p1814
aS'&#x1f6e2;'
p1815
ag1455
ag810
ag462
ag1131
ag336
ag1506
aS'&#x1f3a6;'
p1816
aS'&#x1f4f6;'
p1817
aS'&#x1f4f5;'
p1818
aS'&#x1f4f3;'
p1819
aS'&#x1f4f4;'
p1820
asVmouth
p1821
(lp1822
g1322
aS'&#x1f604;'
p1823
ag1141
aS'&#x1f636;'
p1824
aS'&#x1f62e;'
p1825
aS'&#x1f910;'
p1826
aS'&#x1f911;'
p1827
aS'&#x1f626;'
p1828
ag531
aS'&#x1f63a;'
p1829
aS'&#x1f444;'
p1830
ag1830
asVletter
p1831
(lp1832
S'&#x1f48c;'
p1833
ag1094
ag1095
ag1096
ag1097
ag1098
asVentry
p1834
(lp1835
g967
ag968
asVcoin
p1836
(lp1837
g1675
asVglow
p1838
(lp1839
g528
asVclock face ten oclock\u224a ten o\u2019clock
p1840
(lp1841
S'&#x1f559;'
p1842
asVmedical
p1843
(lp1844
V&#x1f637;
p1845
asVm
p1846
(lp1847
g785
asVdog
p1848
(lp1849
S'&#x1f436;'
p1850
aS'&#x1f415;'
p1851
ag1851
aS'&#x1f429;'
p1852
asVnon-potable water symbol\u224a non-potable water
p1853
(lp1854
g971
asVyang
p1855
(lp1856
S'&#x262f;'
p1857
asVanticlockwise downwards and upwards open circle arrows\u224a anticlockwise arrows button
p1858
(lp1859
g1276
asVfamily: woman
p1860
(lp1861
S'&#x1f469&#x200d&#x1f469&#x200d&#x1f466;'
p1862
aS'&#x1f469&#x200d&#x1f469&#x200d&#x1f467;'
p1863
aS'&#x1f469&#x200d&#x1f469&#x200d&#x1f467&#x200d&#x1f466;'
p1864
aS'&#x1f469&#x200d&#x1f469&#x200d&#x1f466&#x200d&#x1f466;'
p1865
aS'&#x1f469&#x200d&#x1f469&#x200d&#x1f467&#x200d&#x1f467;'
p1866
asVlove letter
p1867
(lp1868
g1833
asVscream
p1869
(lp1870
V&#x1f631;
p1871
aS'&#x1f631;'
p1872
asVarmenia
p1873
(lp1874
S'&#x1f1e6&#x1f1f2;'
p1875
asVeast timor
p1876
(lp1877
S'&#x1f1f9&#x1f1f1;'
p1878
asVwheelchair symbol\u224a wheelchair
p1879
(lp1880
g961
asVbomb
p1881
(lp1882
g1469
ag1469
asVkeycap digit four
p1883
(lp1884
g342
asVqueen
p1885
(lp1886
V&#x1f41c;
p1887
ag1683
asVsmirking face
p1888
(lp1889
S'&#x1f60f;'
p1890
asVradio
p1891
(lp1892
g1777
ag1777
aS'&#x1f518;'
p1893
asVasia
p1894
(lp1895
V&#x1f403;
p1896
aS'&#x1f30f;'
p1897
asVclock face twelve-thirty\u224a twelve-thirty
p1898
(lp1899
S'&#x1f567;'
p1900
asVinput symbol for latin small letters\u224a input latin lowercase
p1901
(lp1902
g774
asVearth
p1903
(lp1904
S'&#x1f30d;'
p1905
aS'&#x1f30e;'
p1906
ag1897
aS'&#x1f310;'
p1907
asVfork and knife
p1908
(lp1909
g555
asVbus stop
p1910
(lp1911
g910
asVdagger knife\u224a dagger
p1912
(lp1913
g1805
asVinbox tray
p1914
(lp1915
g1098
asVnortheast
p1916
(lp1917
g1263
asVvatican
p1918
(lp1919
S'&#x1f1fb&#x1f1e6;'
p1920
asVfolded
p1921
(lp1922
S'&#x1f64f;'
p1923
asVbust
p1924
(lp1925
S'&#x1f464;'
p1926
aS'&#x1f465;'
p1927
asVflag for brazil
p1928
(lp1929
S'&#x1f1e7&#x1f1f7;'
p1930
asVzipper-mouth face
p1931
(lp1932
g1826
asVfolder
p1933
(lp1934
g1111
ag1112
asVrice
p1935
(lp1936
V&#x1f391;
p1937
aS'&#x1f33e;'
p1938
ag1710
ag493
ag1711
ag1712
asVplace of worship
p1939
(lp1940
S'&#x1f6d0;'
p1941
asVbahrain
p1942
(lp1943
S'&#x1f1e7&#x1f1ed;'
p1944
asVplate
p1945
(lp1946
g430
asVsunglasses
p1947
(lp1948
V&#x1f60e;
p1949
aS'&#x1f60e;'
p1950
ag1671
asVstop
p1951
(lp1952
g910
aS'&#x23f9;'
p1953
asVsoon with rightwards arrow above\u224a soon arrow
p1954
(lp1955
g1279
asVleisure
p1956
(lp1957
V&#x1f3e9;
p1958
asVappetizer
p1959
(lp1960
V&#x1f40c;
p1961
asVgeek
p1962
(lp1963
S'&#x1f913;'
p1964
asVguatemala
p1965
(lp1966
S'&#x1f1ec&#x1f1f9;'
p1967
asVmeditate
p1968
(lp1969
V&#x1f614;
p1970
asVwatermelon
p1971
(lp1972
g1694
ag1694
asVwedding
p1973
(lp1974
g426
aS'&#x1f470;'
p1975
ag433
ag433
asVfrying
p1976
(lp1977
g554
asVhaiti
p1978
(lp1979
S'&#x1f1ed&#x1f1f9;'
p1980
asVpouting
p1981
(lp1982
S'&#x1f621;'
p1983
ag826
aS'&#x1f64e;'
p1984
asVbust in silhouette
p1985
(lp1986
g1926
asVbeads
p1987
(lp1988
g1685
asVbar
p1989
(lp1990
g1724
ag1728
aS'&#x1f37e;'
p1991
ag724
ag725
ag1729
ag1730
ag1731
ag501
ag1120
ag1621
ag1817
asVoncoming taxi
p1992
(lp1993
g917
asVclock face twelve oclock\u224a twelve o\u2019clock
p1994
(lp1995
S'&#x1f55b;'
p1996
asVflag for new caledonia
p1997
(lp1998
g573
asVbag
p1999
(lp2000
g439
ag1676
ag747
ag1677
ag440
ag1091
asVmicroscope
p2001
(lp2002
g1512
ag1512
asVflag for bahrain
p2003
(lp2004
g1944
asVgrinning face with smiling eyes
p2005
(lp2006
S'&#x1f601;'
p2007
asVfather christmas
p2008
(lp2009
g78
ag79
ag80
ag81
ag82
asVinterrobang
p2010
(lp2011
g756
asVsteam
p2012
(lp2013
V&#x1f682;
p2014
ag897
asV3:00
p2015
(lp2016
S'&#x1f552;'
p2017
asVfair
p2018
(lp2019
V&#x1f3a2;
p2020
asVheavy black heart\u224a red heart
p2021
(lp2022
S'&#x2764;'
p2023
asVnut
p2024
(lp2025
g1519
asVrunning shirt with sash\u224a running shirt
p2026
(lp2027
g1028
asVpolice cars revolving light\u224a police car\u2019s light
p2028
(lp2029
g926
asVframe with picture
p2030
(lp2031
g1069
asVhammer
p2032
(lp2033
g1514
ag1514
ag1516
ag1517
asVtaiwan
p2034
(lp2035
g592
asVhourglass
p2036
(lp2037
g1738
ag1738
ag450
asVbrazil
p2038
(lp2039
g1930
asV00
p2040
(lp2041
g1996
ag1317
ag1166
ag2017
ag340
aS'&#x1f554;'
p2042
aS'&#x1f555;'
p2043
aS'&#x1f556;'
p2044
aS'&#x1f557;'
p2045
aS'&#x1f558;'
p2046
ag1842
aS'&#x1f55a;'
p2047
asVdeadpan
p2048
(lp2049
S'&#x1f610;'
p2050
asVpostbox
p2051
(lp2052
g1100
ag1101
ag1102
ag1103
ag1104
ag1104
asVkeycap digit seven
p2053
(lp2054
g769
asVshaved
p2055
(lp2056
g1719
asVmug
p2057
(lp2058
g1730
ag1731
asVscore
p2059
(lp2060
g1770
ag598
asVfinger
p2061
(lp2062
S'&#x1f448;'
p2063
aS'&#x1f449;'
p2064
ag1160
aS'&#x1f446;'
p2065
aS'&#x1f595;'
p2066
ag1618
aS'&#x1f596;'
p2067
aS'&#x1f918;'
p2068
aS'&#x1f590;'
p2069
asVtropical drink
p2070
(lp2071
g1729
asVkeycap number sign\u224a keycap number
p2072
(lp2073
g763
asVwc
p2074
(lp2075
g668
ag669
ag670
ag671
asVthumbs up sign\u224a thumbs up
p2076
(lp2077
g1416
asVnature
p2078
(lp2079
g1451
ag1452
ag1466
ag1829
aS'&#x1f638;'
p2080
aS'&#x1f639;'
p2081
aS'&#x1f63b;'
p2082
aS'&#x1f63c;'
p2083
aS'&#x1f63d;'
p2084
aS'&#x1f640;'
p2085
aS'&#x1f63f;'
p2086
ag826
aS'&#x1f648;'
p2087
aS'&#x1f649;'
p2088
aS'&#x1f64a;'
p2089
aS'&#x1f435;'
p2090
aS'&#x1f412;'
p2091
ag1850
ag1851
ag1852
aS'&#x1f43a;'
p2092
ag987
aS'&#x1f408;'
p2093
ag375
aS'&#x1f42f;'
p2094
aS'&#x1f405;'
p2095
aS'&#x1f406;'
p2096
aS'&#x1f434;'
p2097
aS'&#x1f40e;'
p2098
aS'&#x1f984;'
p2099
aS'&#x1f42e;'
p2100
aS'&#x1f402;'
p2101
aS'&#x1f403;'
p2102
aS'&#x1f404;'
p2103
aS'&#x1f437;'
p2104
aS'&#x1f416;'
p2105
aS'&#x1f417;'
p2106
aS'&#x1f43d;'
p2107
ag1368
ag1369
ag1246
aS'&#x1f42a;'
p2108
ag1497
aS'&#x1f418;'
p2109
aS'&#x1f42d;'
p2110
aS'&#x1f401;'
p2111
ag1602
aS'&#x1f439;'
p2112
aS'&#x1f430;'
p2113
aS'&#x1f407;'
p2114
aS'&#x1f43f;'
p2115
aS'&#x1f43b;'
p2116
aS'&#x1f428;'
p2117
ag525
aS'&#x1f43e;'
p2118
aS'&#x1f983;'
p2119
aS'&#x1f414;'
p2120
aS'&#x1f413;'
p2121
aS'&#x1f423;'
p2122
aS'&#x1f424;'
p2123
aS'&#x1f425;'
p2124
aS'&#x1f426;'
p2125
aS'&#x1f427;'
p2126
aS'&#x1f54a;'
p2127
aS'&#x1f438;'
p2128
aS'&#x1f40a;'
p2129
aS'&#x1f422;'
p2130
ag843
aS'&#x1f432;'
p2131
aS'&#x1f409;'
p2132
aS'&#x1f433;'
p2133
aS'&#x1f40b;'
p2134
ag850
aS'&#x1f41f;'
p2135
aS'&#x1f420;'
p2136
aS'&#x1f421;'
p2137
aS'&#x1f419;'
p2138
aS'&#x1f41a;'
p2139
aS'&#x1f980;'
p2140
aS'&#x1f40c;'
p2141
aS'&#x1f41b;'
p2142
aS'&#x1f41c;'
p2143
aS'&#x1f41d;'
p2144
ag332
aS'&#x1f982;'
p2145
ag1691
aS'&#x1f338;'
p2146
aS'&#x1f3f5;'
p2147
aS'&#x1f339;'
p2148
aS'&#x1f33a;'
p2149
aS'&#x1f33b;'
p2150
aS'&#x1f33c;'
p2151
aS'&#x1f337;'
p2152
aS'&#x1f331;'
p2153
ag1555
ag730
ag1556
ag387
ag1938
ag586
aS'&#x2618;'
p2154
ag339
aS'&#x1f341;'
p2155
aS'&#x1f342;'
p2156
ag1058
ag1391
ag1693
ag1694
ag1695
ag1696
ag1697
ag1698
ag1699
ag1047
ag1700
ag1701
ag1702
ag1703
ag1704
ag1705
ag1706
ag979
aS'&#x1f344;'
p2157
aS'&#x1f330;'
p2158
ag1227
aS'&#x1f9c0;'
p2159
ag1236
ag1298
ag1707
ag1559
ag1001
aS'&#x1f32d;'
p2160
aS'&#x1f32e;'
p2161
aS'&#x1f32f;'
p2162
ag554
ag1708
aS'&#x1f37f;'
p2163
ag1709
ag1710
ag493
ag1711
ag1712
ag1713
ag1714
ag1212
ag1715
ag1716
ag708
ag1717
ag494
ag1718
ag1719
ag1720
ag1721
ag1722
ag1723
ag1724
ag1725
ag1397
ag1726
ag860
ag1727
ag980
ag436
ag1728
ag1991
ag724
ag725
ag1729
ag1730
ag1731
ag555
ag557
ag1905
ag1906
ag1897
ag1907
ag1627
ag1295
aS'&#x1f5fb;'
p2164
aS'&#x1f3d5;'
p2165
ag996
aS'&#x1f3dc;'
p2166
aS'&#x1f3dd;'
p2167
aS'&#x1f3de;'
p2168
aS'&#x1f301;'
p2169
aS'&#x1f303;'
p2170
ag888
aS'&#x1f305;'
p2171
ag674
aS'&#x1f307;'
p2172
ag1583
aS'&#x1f30c;'
p2173
aS'&#x1f311;'
p2174
aS'&#x1f312;'
p2175
aS'&#x1f313;'
p2176
aS'&#x1f314;'
p2177
aS'&#x1f315;'
p2178
ag1219
aS'&#x1f317;'
p2179
aS'&#x1f318;'
p2180
aS'&#x1f319;'
p2181
aS'&#x1f31a;'
p2182
aS'&#x1f31b;'
p2183
aS'&#x1f31c;'
p2184
aS'&#x1f321;'
p2185
aS'&#x2600;'
p2186
aS'&#x1f31d;'
p2187
aS'&#x1f31e;'
p2188
aS'&#x2b50;'
p2189
aS'&#x1f320;'
p2190
aS'&#x2601;'
p2191
aS'&#x26c5;'
p2192
ag548
aS'&#x1f324;'
p2193
aS'&#x1f325;'
p2194
ag1383
ag1384
ag1628
aS'&#x1f329;'
p2195
ag472
aS'&#x1f32b;'
p2196
ag1059
aS'&#x1f300;'
p2197
ag1385
ag1386
ag1387
ag1388
ag951
ag368
ag1629
ag1630
ag1631
ag1475
ag1635
ag616
asVrolled
p2198
(lp2199
g1796
asVaquarius
p2200
(lp2201
g557
aS'&#x2652;'
p2202
ag2202
asVweary
p2203
(lp2204
g637
ag487
ag2085
asVsoutheast
p2205
(lp2206
g1264
asVskull and crossbones
p2207
(lp2208
g1654
asVnews
p2209
(lp2210
g1795
ag1796
asVwallis
p2211
(lp2212
g702
asVroller
p2213
(lp2214
g2020
aS'&#x1f3a2;'
p2215
asVleftwards arrow with hook\u224a right arrow curving left
p2216
(lp2217
g1271
asVcop
p2218
(lp2219
S'&#x1f46e;'
p2220
asVmans shoe\u224a man\u2019s shoe
p2221
(lp2222
g1678
asVtwo hearts
p2223
(lp2224
S'&#x1f495;'
p2225
asVbhutan
p2226
(lp2227
S'&#x1f1e7&#x1f1f9;'
p2228
asVcow
p2229
(lp2230
V&#x1f404;
p2231
ag2100
ag2103
ag2103
asVmayotte
p2232
(lp2233
g1376
asVjan mayen
p2234
(lp2235
g328
asVill
p2236
(lp2237
S'&#x1f912;'
p2238
asVmacedonia
p2239
(lp2240
S'&#x1f1f2&#x1f1f0;'
p2241
asVthree button mouse\u224a computer mouse
p2242
(lp2243
g1073
asVflag for benin
p2244
(lp2245
S'&#x1f1e7&#x1f1ef;'
p2246
asVreceiver
p2247
(lp2248
g1784
asVstudio
p2249
(lp2250
g1773
asVtone
p2251
(lp2252
S'&#x1f3fb;'
p2253
aS'&#x1f3fc;'
p2254
aS'&#x1f3fd;'
p2255
aS'&#x1f3fe;'
p2256
aS'&#x1f3ff;'
p2257
asVroller coaster
p2258
(lp2259
g2215
asVvexed
p2260
(lp2261
V&#x1f620;
p2262
asVmegabyte
p2263
(lp2264
V&#x1f4be;
p2265
asVflag for bermuda
p2266
(lp2267
S'&#x1f1e7&#x1f1f2;'
p2268
asVsilhouette of japan\u224a map of japan
p2269
(lp2270
g1156
asVsprings
p2271
(lp2272
g981
asVsun behind cloud
p2273
(lp2274
g2192
asVspeak
p2275
(lp2276
g2089
ag834
asVfallen leaf
p2277
(lp2278
g2156
asViraq
p2279
(lp2280
S'&#x1f1ee&#x1f1f6;'
p2281
asVbeef
p2282
(lp2283
g2231
asVman with gua pi mao\u224a man with chinese cap
p2284
(lp2285
S'&#x1f472;'
p2286
asVupside-down
p2287
(lp2288
S'&#x1f643;'
p2289
asVbeer
p2290
(lp2291
g1730
ag1731
asVfairy tale
p2292
(lp2293
g1448
ag1449
ag1178
ag491
ag492
aS'&#x1f480;'
p2294
ag1450
ag1451
ag1452
ag1453
ag605
ag1454
ag2131
ag2132
ag1455
asVflag for ascension island
p2295
(lp2296
S'&#x1f1e6&#x1f1e8;'
p2297
asVstadium
p2298
(lp2299
S'&#x1f3df;'
p2300
ag2300
asVmushroom
p2301
(lp2302
g2157
ag2157
asVworker
p2303
(lp2304
g417
asVtajikistan
p2305
(lp2306
S'&#x1f1f9&#x1f1ef;'
p2307
asVkeycap ten
p2308
(lp2309
g771
asVkeycap digit six
p2310
(lp2311
g768
asVvulcan
p2312
(lp2313
g2067
asVchile
p2314
(lp2315
S'&#x1f1e8&#x1f1f1;'
p2316
asVchild
p2317
(lp2318
S'&#x1f46a;'
p2319
ag966
asVfield hockey stick and ball\u224a field hockey
p2320
(lp2321
g1756
asVant
p2322
(lp2323
g1887
ag2143
ag2143
asVinformation desk person
p2324
(lp2325
S'&#x1f481;'
p2326
ag123
ag124
ag125
ag126
ag127
asVleftwards black arrow\u224a left arrow
p2327
(lp2328
g1267
asVcracker
p2329
(lp2330
g1710
asVflag for eritrea
p2331
(lp2332
S'&#x1f1ea&#x1f1f7;'
p2333
asVaid
p2334
(lp2335
g539
asVbalance
p2336
(lp2337
g1523
aS'&#x264e;'
p2338
asVanchor
p2339
(lp2340
V&#x2693;
p2341
ag929
ag929
ag1506
asVmusical note
p2342
(lp2343
g1771
asVseven
p2344
(lp2345
g2044
aS'&#x1f562;'
p2346
ag769
asVstatue of liberty
p2347
(lp2348
g563
asVcongratulation
p2349
(lp2350
g797
asVmetropolitan
p2351
(lp2352
g566
asVmexico
p2353
(lp2354
S'&#x1f1f2&#x1f1fd;'
p2355
asVsushi
p2356
(lp2357
g1716
ag1716
asVsting
p2358
(lp2359
g859
asVburundi
p2360
(lp2361
S'&#x1f1e7&#x1f1ee;'
p2362
asVdizzy
p2363
(lp2364
V&#x1f635;
p2365
ag1494
ag1473
ag2197
asVolder woman\u224a old woman
p2366
(lp2367
S'&#x1f475;'
p2368
asVviolin
p2369
(lp2370
g1782
ag1782
asVmouse
p2371
(lp2372
g2110
ag2111
ag2111
ag1073
asVid
p2373
(lp2374
g784
asVno entry sign\u224a prohibited
p2375
(lp2376
g968
asVearth globe americas\u224a globe showing americas
p2377
(lp2378
g1906
asVpunctuation
p2379
(lp2380
g992
ag755
ag756
ag757
ag758
ag759
ag760
ag820
asVflag for colombia
p2381
(lp2382
S'&#x1f1e8&#x1f1f4;'
p2383
asVface with medical mask
p2384
(lp2385
g1354
asVindian ocean
p2386
(lp2387
S'&#x1f1ee&#x1f1f4;'
p2388
asVman with turban
p2389
(lp2390
S'&#x1f473;'
p2391
ag53
ag54
ag55
ag56
ag57
asVvegetable
p2392
(lp2393
g1704
ag1705
asVbunny
p2394
(lp2395
S'&#x1f46f;'
p2396
ag2113
ag2114
asVeuropean
p2397
(lp2398
g396
ag1068
aS'&#x1f3f0;'
p2399
asVwheel
p2400
(lp2401
V&#x1f3a1;
p2402
aS'&#x1f3a1;'
p2403
aS'&#x2638;'
p2404
asVslightly frowning face
p2405
(lp2406
S'&#x1f641;'
p2407
asVsatellite
p2408
(lp2409
S'&#x1f6f0;'
p2410
ag2410
ag1079
asVnib
p2411
(lp2412
g1106
ag1802
asVpick
p2413
(lp2414
g1515
ag1515
ag1516
asVevil
p2415
(lp2416
g2087
ag2088
ag2089
asVhand
p2417
(lp2418
S'&#x1f645;'
p2419
aS'&#x1f646;'
p2420
ag2326
aS'&#x1f64b;'
p2421
ag606
ag1923
ag742
ag743
ag744
ag2063
ag2064
ag1160
ag2065
ag2066
ag1618
ag1256
ag2067
ag2068
ag2069
aS'&#x270b;'
p2422
aS'&#x1f44c;'
p2423
ag1416
aS'&#x1f44e;'
p2424
aS'&#x270a;'
p2425
ag1038
aS'&#x1f44b;'
p2426
aS'&#x1f44f;'
p2427
ag1312
aS'&#x270d;'
p2428
asVslovenia
p2429
(lp2430
S'&#x1f1f8&#x1f1ee;'
p2431
asVunicorn
p2432
(lp2433
g2099
asVperson with ball
p2434
(lp2435
g956
ag303
ag304
ag305
ag306
ag307
asVdominican republic
p2436
(lp2437
g1163
asVsmiling face with sunglasses
p2438
(lp2439
g1950
asVflag for mauritius
p2440
(lp2441
S'&#x1f1f2&#x1f1fa;'
p2442
asVspiral shell
p2443
(lp2444
g2139
asVtassel
p2445
(lp2446
g882
asVsquared katakana sa
p2447
(lp2448
g504
asVocean
p2449
(lp2450
g2341
ag1635
asVtrade mark sign\u224a trade mark
p2451
(lp2452
g693
asVacademic
p2453
(lp2454
g882
asVflag for angola
p2455
(lp2456
g1306
asVmother
p2457
(lp2458
g2319
asVhearts
p2459
(lp2460
S'&#x2665;'
p2461
asVtype-1-2
p2462
(lp2463
g3
ag8
ag13
ag18
ag23
ag28
ag33
ag38
ag43
ag48
ag53
ag58
ag63
ag68
ag73
ag78
ag83
ag88
ag93
ag98
ag103
ag108
ag113
ag118
ag123
ag128
ag133
ag138
ag143
ag148
ag153
ag158
ag163
ag168
ag173
ag178
ag183
ag188
ag193
ag198
ag203
ag208
ag213
ag218
ag223
ag228
ag233
ag238
ag243
ag248
ag253
ag258
ag263
ag268
ag273
ag278
ag283
ag288
ag293
ag298
ag303
ag308
ag313
ag318
asVsnowman
p2464
(lp2465
g1630
ag1630
ag1631
asVclock face ten-thirty\u224a ten-thirty
p2466
(lp2467
S'&#x1f565;'
p2468
asVyen
p2469
(lp2470
g863
ag353
asVathletic
p2471
(lp2472
g1679
asVeight spoked asterisk\u224a eight-spoked asterisk
p2473
(lp2474
S'&#x2733;'
p2475
asVsleepy
p2476
(lp2477
g345
asVrodent
p2478
(lp2479
g1601
asVdjibouti
p2480
(lp2481
S'&#x1f1e9&#x1f1ef;'
p2482
asVthanks
p2483
(lp2484
g1923
asVheavy minus sign
p2485
(lp2486
g1580
asVnote
p2487
(lp2488
g1771
ag1772
ag863
ag864
ag865
ag866
ag1092
ag1116
asVhigh brightness symbol\u224a bright button
p2489
(lp2490
g1243
asVheart-shaped
p2491
(lp2492
V&#x1f60d;
p2493
asVlower left fountain pen\u224a fountain pen
p2494
(lp2495
g1107
asVsunflower
p2496
(lp2497
g2150
ag2150
asVvibration
p2498
(lp2499
g1819
asVscorpio
p2500
(lp2501
g2145
aS'&#x264f;'
p2502
asVcherry
p2503
(lp2504
g2146
ag1702
asVkissing face with closed eyes
p2505
(lp2506
S'&#x1f61a;'
p2507
asVinnocent
p2508
(lp2509
g1448
asVsquared up with exclamation mark\u224a up! button
p2510
(lp2511
g791
asVeast
p2512
(lp2513
g1250
ag1878
asVhat
p2514
(lp2515
g2286
ag417
ag539
ag1684
ag1487
ag607
asVhigh-heeled shoe
p2516
(lp2517
g1680
asVclock face one-thirty\u224a one-thirty
p2518
(lp2519
S'&#x1f55c;'
p2520
asVaubergine
p2521
(lp2522
g1705
asVflag for bosnia & herzegovina
p2523
(lp2524
g1239
asVeustatius
p2525
(lp2526
g1230
asVlinked paperclips
p2527
(lp2528
g1125
asVhot pepper
p2529
(lp2530
g979
asVbirth
p2531
(lp2532
g1958
asVcape
p2533
(lp2534
S'&#x1f1e8&#x1f1fb;'
p2535
asVflag for austria
p2536
(lp2537
S'&#x1f1e6&#x1f1f9;'
p2538
asV6:00
p2539
(lp2540
g2043
asV12:30
p2541
(lp2542
g1900
asVgift
p2543
(lp2544
V&#x1f381;
p2545
ag618
asVspiral calendar pad\u224a spiral calendar
p2546
(lp2547
g1117
asVperforming
p2548
(lp2549
g1734
asVspeaker with cancellation stroke\u224a speaker off
p2550
(lp2551
g1764
asVpolice car
p2552
(lp2553
g914
asVbangbang
p2554
(lp2555
g755
asVflag for myanmar
p2556
(lp2557
g660
asVofficer
p2558
(lp2559
g2220
asVnight
p2560
(lp2561
g654
ag2170
ag1583
asVsignal
p2562
(lp2563
g837
ag927
ag1817
asVeject symbol\u224a eject button
p2564
(lp2565
S'&#x23cf;'
p2566
asVright
p2567
(lp2568
g1283
ag1286
asVold
p2569
(lp2570
S'&#x1f474;'
p2571
ag2368
ag1804
asVflag for syria
p2572
(lp2573
S'&#x1f1f8&#x1f1fe;'
p2574
asVkorea
p2575
(lp2576
S'&#x1f1f0&#x1f1f5;'
p2577
aS'&#x1f1f0&#x1f1f7;'
p2578
asVlower left paintbrush\u224a paintbrush
p2579
(lp2580
g1108
asVcrown
p2581
(lp2582
g1683
ag1683
asVdead
p2583
(lp2584
g663
asVspouting whale
p2585
(lp2586
g2133
asVmalaysia
p2587
(lp2588
S'&#x1f1f2&#x1f1fe;'
p2589
asVclubs
p2590
(lp2591
S'&#x2663;'
p2592
asVarrivals
p2593
(lp2594
g940
asVlatin cross
p2595
(lp2596
S'&#x271d;'
p2597
asVnew zealand
p2598
(lp2599
g574
asVemoji modifier fitzpatrick type-6\u224a skin type-6
p2600
(lp2601
g2257
asVgrowing heart
p2602
(lp2603
g1021
asVwaxing gibbous moon symbol\u224a waxing gibbous moon
p2604
(lp2605
g2177
asVpurple
p2606
(lp2607
S'&#x1f49c;'
p2608
asVice
p2609
(lp2610
g1718
ag1719
ag1720
ag1757
ag952
asVhigh-speed train
p2611
(lp2612
g899
asVfog
p2613
(lp2614
g2169
ag2196
ag2196
asVelectric plug
p2615
(lp2616
g369
asVhot springs
p2617
(lp2618
g981
asVtriangular flag on post\u224a triangular flag
p2619
(lp2620
g959
asV3:30
p2621
(lp2622
S'&#x1f55e;'
p2623
asVbeating
p2624
(lp2625
S'&#x1f493;'
p2626
asVchristmas
p2627
(lp2628
g378
ag605
ag609
aS'&#x1f1e8&#x1f1fd;'
p2629
asVyin yang
p2630
(lp2631
g1857
asVcorn
p2632
(lp2633
g1706
asVclock face three-thirty\u224a three-thirty
p2634
(lp2635
g2623
asVcork
p2636
(lp2637
g1991
asVrolled-up newspaper
p2638
(lp2639
g1796
asVphew
p2640
(lp2641
g1140
asVbolt
p2642
(lp2643
g1519
asVpost
p2644
(lp2645
g495
ag1068
ag515
ag959
asVsee-no-evil monkey\u224a see-no-evil
p2646
(lp2647
g2087
asVwhite right pointing backhand index
p2648
(lp2649
g173
ag174
ag175
ag176
ag177
asVflag for fiji
p2650
(lp2651
g583
asVo
p2652
(lp2653
g973
ag787
asVear of rice\u224a sheaf of rice
p2654
(lp2655
g1938
asVplus
p2656
(lp2657
g465
asVcraftsman
p2658
(lp2659
g356
asVraised hand with part between middle and ring fingers\u224a vulcan salute
p2660
(lp2661
g2067
asVperson with pouting face\u224a person pouting
p2662
(lp2663
g1984
asVcurry
p2664
(lp2665
g1712
asValembic
p2666
(lp2667
g1522
ag1522
asVclockwise rightwards and leftwards open circle arrows with circled one overlay\u224a repeat single button
p2668
(lp2669
g1282
asVraised
p2670
(lp2671
g2421
ag606
asVsob
p2672
(lp2673
g720
aS'&#x1f62d;'
p2674
asVflag for denmark
p2675
(lp2676
S'&#x1f1e9&#x1f1f0;'
p2677
asVpuzzle
p2678
(lp2679
V&#x1f616;
p2680
asVfloat
p2681
(lp2682
g604
asVbath
p2683
(lp2684
g949
ag288
ag289
ag290
ag291
ag292
ag950
asVdown
p2685
(lp2686
g1618
ag2424
ag1096
ag1119
ag1265
ag1274
ag325
ag1292
aS'&#x1f53b;'
p2687
asVsos
p2688
(lp2689
g790
asVsquared cjk unified ideograph-6709\u224a squared exist ideograph
p2690
(lp2691
g506
asVtiger face
p2692
(lp2693
g2094
asVwrap
p2694
(lp2695
g2545
asVchime
p2696
(lp2697
g1057
ag615
asVfrightened
p2698
(lp2699
V&#x1f628;
p2700
asVgyrocopter
p2701
(lp2702
V&#x1f681;
p2703
asVcompression
p2704
(lp2705
g1521
ag1521
asVastonished face
p2706
(lp2707
S'&#x1f632;'
p2708
asVclock face seven oclock\u224a seven o\u2019clock
p2709
(lp2710
g2044
asVtennis
p2711
(lp2712
g1752
asVvirgin
p2713
(lp2714
g1663
ag1664
ag1443
aS'&#x1f1fb&#x1f1ee;'
p2715
asVhot beverage
p2716
(lp2717
g980
asVsouth korea
p2718
(lp2719
g2578
asVbolivia
p2720
(lp2721
S'&#x1f1e7&#x1f1f4;'
p2722
asVflag for cocos islands
p2723
(lp2724
S'&#x1f1e8&#x1f1e8;'
p2725
asVhappy
p2726
(lp2727
g1958
ag2421
asVfork
p2728
(lp2729
g430
ag555
asVhead
p2730
(lp2731
g834
asVsuriname
p2732
(lp2733
S'&#x1f1f8&#x1f1f7;'
p2734
asVlower left crayon\u224a crayon
p2735
(lp2736
g1109
asVfireworks
p2737
(lp2738
g1365
ag610
ag610
ag611
asVlanding
p2739
(lp2740
g940
asVpierre
p2741
(lp2742
S'&#x1f1f5&#x1f1f2;'
p2743
asVflag for hong kong
p2744
(lp2745
g590
asVverde
p2746
(lp2747
g2535
asVhear
p2748
(lp2749
g2088
asVastonished
p2750
(lp2751
g1359
ag2708
asVradioactive
p2752
(lp2753
S'&#x2622;'
p2754
asVfort
p2755
(lp2756
g396
asVcongratulations
p2757
(lp2758
g426
ag797
asVmegaphone
p2759
(lp2760
g1767
asVflag for honduras
p2761
(lp2762
S'&#x1f1ed&#x1f1f3;'
p2763
asVeject
p2764
(lp2765
g2566
asVinside
p2766
(lp2767
g1477
asVlitter
p2768
(lp2769
g873
ag970
asVcloud with tornado\u224a tornado
p2770
(lp2771
g472
asVblu-ray
p2772
(lp2773
g1077
ag1078
asVpalm
p2774
(lp2775
g1556
asVzodiac
p2776
(lp2777
g1663
ag743
ag375
ag2101
ag1368
ag1246
ag843
ag2135
ag2140
ag2145
ag557
ag1261
ag1523
ag1596
aS'&#x2649;'
p2778
aS'&#x264a;'
p2779
aS'&#x264b;'
p2780
aS'&#x264c;'
p2781
ag1664
ag2338
ag2502
aS'&#x2650;'
p2782
ag1247
ag2202
aS'&#x2653;'
p2783
ag844
asVtanzania
p2784
(lp2785
g1035
asVnut and bolt
p2786
(lp2787
g1519
asVflag for palestinian territories
p2788
(lp2789
g1528
asVpassenger
p2790
(lp2791
g933
asVoutbox tray
p2792
(lp2793
g1097
asVestonia
p2794
(lp2795
S'&#x1f1ea&#x1f1ea;'
p2796
asVclosed book
p2797
(lp2798
g1081
asVsale
p2799
(lp2800
V&#x1f3ec;
p2801
asVumbrella with rain drops
p2802
(lp2803
g1388
asVgemini
p2804
(lp2805
g743
ag2779
ag2779
asVracing car
p2806
(lp2807
g957
asVprayer
p2808
(lp2809
g1685
asVship
p2810
(lp2811
g2341
ag929
ag933
ag936
ag936
ag1506
asVcheck
p2812
(lp2813
S'&#x2705;'
p2814
aS'&#x2611;'
p2815
aS'&#x2714;'
p2816
asVkiss: man
p2817
(lp2818
S'&#x1f468&#x200d&#x2764&#xfe0f&#x200d&#x1f48b&#x200d&#x1f468;'
p2819
asVflag for u.s. virgin islands
p2820
(lp2821
g2715
asVno
p2822
(lp2823
g2087
ag2088
ag2089
ag2419
ag1769
ag967
ag968
ag384
ag969
ag970
ag971
ag972
ag1818
ag772
asVfish cake with swirl design\u224a fish cake with swirl
p2824
(lp2825
g1717
asVcambodia
p2826
(lp2827
S'&#x1f1f0&#x1f1ed;'
p2828
asVng
p2829
(lp2830
g786
asVpower
p2831
(lp2832
V&#x1f6a4;
p2833
asVshrine
p2834
(lp2835
S'&#x26e9;'
p2836
asVrepublic
p2837
(lp2838
g651
ag1341
ag1253
asVwhew
p2839
(lp2840
g677
asVfalkland
p2841
(lp2842
S'&#x1f1eb&#x1f1f0;'
p2843
asVsmell
p2844
(lp2845
V&#x1f43d;
p2846
asVflag for rwanda
p2847
(lp2848
S'&#x1f1f7&#x1f1fc;'
p2849
asVwomans clothes\u224a woman\u2019s clothes
p2850
(lp2851
g1674
asVpicture
p2852
(lp2853
V&#x1f3a5;
p2854
ag1069
asVthumbs up
p2855
(lp2856
g1416
asVcircled ideograph secret\u224a circled secret ideograph
p2857
(lp2858
g798
asVflag for kazakhstan
p2859
(lp2860
S'&#x1f1f0&#x1f1ff;'
p2861
asVface with no good gesture
p2862
(lp2863
g113
ag114
ag115
ag116
ag117
asVwelcome
p2864
(lp2865
g571
asVasterisk
p2866
(lp2867
g2475
aS'&#x002a&#x20e3;'
p2868
asVflag for papua new guinea
p2869
(lp2870
g575
asVtaurus
p2871
(lp2872
g2101
ag2778
ag2778
asVflag for argentina
p2873
(lp2874
S'&#x1f1e6&#x1f1f7;'
p2875
asVrolling
p2876
(lp2877
S'&#x1f644;'
p2878
asVwhite medium star
p2879
(lp2880
g2189
asVflushed
p2881
(lp2882
S'&#x1f633;'
p2883
asVmount fuji
p2884
(lp2885
g2164
asVinput symbol for latin capital letters\u224a input latin uppercase
p2886
(lp2887
g773
asVamusement
p2888
(lp2889
g2020
asVblack diamond suit\u224a diamond suit
p2890
(lp2891
S'&#x2666;'
p2892
asVapology
p2893
(lp2894
g399
asVpotato
p2895
(lp2896
g1212
asVcheering megaphone\u224a megaphone
p2897
(lp2898
g1767
asVyacht
p2899
(lp2900
g930
asVfloppy disk
p2901
(lp2902
g1076
asVceuta
p2903
(lp2904
S'&#x1f1ea&#x1f1e6;'
p2905
asVvietnam
p2906
(lp2907
S'&#x1f1fb&#x1f1f3;'
p2908
asVvideocassette
p2909
(lp2910
g1793
ag1793
asVtime
p2911
(lp2912
g888
ag2171
ag674
ag2172
ag1738
ag450
ag1739
ag1740
ag1741
ag1742
ag1996
ag1900
ag1317
ag2520
ag1166
aS'&#x1f55d;'
p2913
ag2017
ag2623
ag340
ag341
ag2042
aS'&#x1f560;'
p2914
ag2043
aS'&#x1f561;'
p2915
ag2044
ag2346
ag2045
aS'&#x1f563;'
p2916
ag2046
aS'&#x1f564;'
p2917
ag1842
ag2468
ag2047
aS'&#x1f566;'
p2918
ag2174
ag2175
ag2176
ag2177
ag2178
ag1219
ag2179
ag2180
ag2181
ag2182
ag1596
ag2778
ag2779
ag2780
ag2781
ag1664
ag2338
ag2502
ag2782
ag1247
ag2202
ag2783
asVpassenger ship
p2919
(lp2920
g933
asVserious
p2921
(lp2922
g1970
asVtear-off calendar
p2923
(lp2924
g1115
asVend with leftwards arrow above\u224a end arrow
p2925
(lp2926
g891
asVflag for belize
p2927
(lp2928
S'&#x1f1e7&#x1f1ff;'
p2929
asVchain
p2930
(lp2931
g1809
asVleft speech bubble
p2932
(lp2933
S'&#x1f5e8;'
p2934
asVcrocodile
p2935
(lp2936
g2129
ag2129
asVskate
p2937
(lp2938
g952
asVbangladesh
p2939
(lp2940
S'&#x1f1e7&#x1f1e9;'
p2941
asVskin
p2942
(lp2943
g2253
ag2254
ag2255
ag2256
ag2257
asVheavy check mark
p2944
(lp2945
g2816
asVchair
p2946
(lp2947
g941
asVmilk
p2948
(lp2949
g1896
ag1727
asVrow
p2950
(lp2951
V&#x1f6a3;
p2952
asVyummy
p2953
(lp2954
g1186
asVblack heart suit\u224a heart suit
p2955
(lp2956
g2461
asVhump
p2957
(lp2958
g2108
ag1497
asVflash
p2959
(lp2960
g545
asVfather
p2961
(lp2962
g885
ag605
ag2319
asVamaze
p2963
(lp2964
g2680
asVsmiling face with open mouth and tightly-closed eyes
p2965
(lp2966
g1141
asVmelon
p2967
(lp2968
g1693
ag1693
asVsmiling face with open mouth and smiling eyes
p2969
(lp2970
g1823
asVsouthwest
p2971
(lp2972
g1266
asVpersevere
p2973
(lp2974
g1575
ag1152
asVdivision
p2975
(lp2976
S'&#x2797;'
p2977
asVprotective
p2978
(lp2979
g1057
asVoil drum
p2980
(lp2981
g1815
asVtrident
p2982
(lp2983
g1506
asVsign of the horns
p2984
(lp2985
g2068
ag208
ag209
ag210
ag211
ag212
asVenvelope with downwards arrow above\u224a envelope with arrow
p2986
(lp2987
g1096
asVpalau
p2988
(lp2989
S'&#x1f1f5&#x1f1fc;'
p2990
asVpig nose
p2991
(lp2992
g2107
asVantenna with bars\u224a antenna bars
p2993
(lp2994
g1817
asVcook
p2995
(lp2996
S'&#x1f1e8&#x1f1f0;'
p2997
asVcool
p2998
(lp2999
g1949
ag1950
ag781
asVdim
p3000
(lp3001
g1242
asVbiceps
p3002
(lp3003
g1467
asVlevel
p3004
(lp3005
g894
asVtear
p3006
(lp3007
V&#x1f622;
p3008
aS'&#x1f602;'
p3009
aS'&#x1f622;'
p3010
ag2674
ag2081
ag2086
asVdie
p3011
(lp3012
g1762
asVphilippines
p3013
(lp3014
g1403
asVgun
p3015
(lp3016
g560
asVflag for congo - kinshasa
p3017
(lp3018
g651
asVhooray
p3019
(lp3020
g606
asVperson raising both hands in celebration\u224a person raising hands
p3021
(lp3022
g606
asVsubway
p3023
(lp3024
V&#x1f689;
p3025
ag902
asVteam
p3026
(lp3027
g1887
asVskewer
p3028
(lp3029
g1715
ag494
asVcarousel horse
p3030
(lp3031
S'&#x1f3a0;'
p3032
asVspiritual
p3033
(lp3034
g1057
asVmali
p3035
(lp3036
S'&#x1f1f2&#x1f1f1;'
p3037
asVlady cow
p3038
(lp3039
g331
asVtrend
p3040
(lp3041
g353
ag578
ag1119
asVsign
p3042
(lp3043
g1024
ag840
ag960
ag961
ag668
ag669
ag670
ag962
ag671
ag699
ag963
ag964
ag628
ag966
ag384
ag969
ag970
ag971
ag972
ag2754
ag1394
ag1857
aS'&#x262e;'
p3044
ag393
ag2814
ag2815
ag2816
aS'&#x2716;'
p3045
ag803
aS'&#x274e;'
p3046
ag465
ag1580
ag2977
aS'&#x27b0;'
p3047
aS'&#x27bf;'
p3048
aS'&#x303d;'
p3049
ag2475
aS'&#x2734;'
p3050
ag1349
ag1242
ag1243
ag789
aS'&#x25aa;'
p3051
ag735
aS'&#x25fb;'
p3052
aS'&#x25fc;'
p3053
ag480
aS'&#x25fe;'
p3054
aS'&#x2b1b;'
p3055
aS'&#x2b1c;'
p3056
aS'&#x1f536;'
p3057
ag534
aS'&#x1f538;'
p3058
ag535
aS'&#x1f53a;'
p3059
ag2687
ag1477
ag1893
aS'&#x1f532;'
p3060
aS'&#x1f533;'
p3061
aS'&#x26aa;'
p3062
aS'&#x26ab;'
p3063
aS'&#x1f534;'
p3064
ag536
asVflag for kyrgyzstan
p3065
(lp3066
S'&#x1f1f0&#x1f1ec;'
p3067
asVcrescent
p3068
(lp3069
g2175
ag2180
ag2181
asVfrankfurter
p3070
(lp3071
g2160
asVfear
p3072
(lp3073
g2700
aS'&#x1f628;'
p3074
ag1872
asVirritated
p3075
(lp3076
g2262
asVflag for clipperton island
p3077
(lp3078
S'&#x1f1e8&#x1f1f5;'
p3079
asVafghanistan
p3080
(lp3081
S'&#x1f1e6&#x1f1eb;'
p3082
asVhocho
p3083
(lp3084
g556
asVdromedary camel\u224a camel
p3085
(lp3086
g2108
asVextraterrestrial
p3087
(lp3088
g1451
ag1452
asVsomalia
p3089
(lp3090
S'&#x1f1f8&#x1f1f4;'
p3091
asVhouse with garden
p3092
(lp3093
S'&#x1f3e1;'
p3094
asVfalling
p3095
(lp3096
g2155
ag2156
ag2190
asVbadge
p3097
(lp3098
g1131
asV1234
p3099
(lp3100
g775
asVblack universal recycling symbol\u224a recycling symbol
p3101
(lp3102
g393
asVtransportation
p3103
(lp3104
V&#x1f68a;
p3105
asVflag for serbia
p3106
(lp3107
S'&#x1f1f7&#x1f1f8;'
p3108
asVamphora
p3109
(lp3110
g557
ag557
asVfuneral
p3111
(lp3112
g1814
asVdazed
p3113
(lp3114
g2883
asVfrench
p3115
(lp3116
g1961
ag1559
aS'&#x1f1ec&#x1f1eb;'
p3117
aS'&#x1f1f2&#x1f1eb;'
p3118
aS'&#x1f1f5&#x1f1eb;'
p3119
aS'&#x1f1f9&#x1f1eb;'
p3120
asVwater
p3121
(lp3122
g1896
ag2102
ag948
ag1635
ag960
ag671
ag971
ag2202
asV2:30
p3123
(lp3124
g2913
asVbaseball
p3125
(lp3126
g1748
ag1748
asVconstruction sign\u224a construction
p3127
(lp3128
g928
asVbox
p3129
(lp3130
g1709
ag618
ag1097
ag1098
ag1099
ag1799
ag1128
ag2815
asVboy
p3131
(lp3132
S'&#x1f466;'
p3133
ag3133
ag3
ag4
ag5
ag6
ag7
aS'&#x1f468&#x200d&#x1f469&#x200d&#x1f466;'
p3134
ag3134
aS'&#x1f468&#x200d&#x1f469&#x200d&#x1f467&#x200d&#x1f466;'
p3135
ag3135
aS'&#x1f468&#x200d&#x1f469&#x200d&#x1f466&#x200d&#x1f466;'
p3136
ag3136
ag3136
aS'&#x1f468&#x200d&#x1f468&#x200d&#x1f466;'
p3137
ag3137
aS'&#x1f468&#x200d&#x1f468&#x200d&#x1f467&#x200d&#x1f466;'
p3138
ag3138
aS'&#x1f468&#x200d&#x1f468&#x200d&#x1f466&#x200d&#x1f466;'
p3139
ag3139
ag3139
ag1862
ag1862
ag1864
ag1864
ag1865
ag1865
ag1865
asVsleuth or spy\u224a detective
p3140
(lp3141
S'&#x1f575;'
p3142
asVincoming
p3143
(lp3144
g1095
asVstar and crescent
p3145
(lp3146
S'&#x262a;'
p3147
asVthirty
p3148
(lp3149
g1900
ag2520
ag2913
ag2623
ag341
ag2914
ag2915
ag2346
ag2916
ag2917
ag2468
ag2918
asVwhite left pointing backhand index\u224a backhand index pointing left
p3150
(lp3151
g2063
asVclock face six oclock\u224a six o\u2019clock
p3152
(lp3153
g2043
asVbow
p3154
(lp3155
g399
ag1923
ag1261
asVmauritius
p3156
(lp3157
g2442
asVnerd face
p3158
(lp3159
g1964
asVgreat britain
p3160
(lp3161
S'&#x1f1ec&#x1f1e7;'
p3162
asVflag for barbados
p3163
(lp3164
S'&#x1f1e7&#x1f1e7;'
p3165
asVdarussalam
p3166
(lp3167
S'&#x1f1e7&#x1f1f3;'
p3168
asVpotable
p3169
(lp3170
g960
ag971
asVbento box
p3171
(lp3172
g1709
asVdepartures
p3173
(lp3174
g939
asVinexpressive
p3175
(lp3176
g1051
asVlove
p3177
(lp3178
g524
ag372
ag2082
aS'&#x1f491;'
p3179
ag2225
ag1833
aS'&#x1f3e9;'
p3180
asVkebab
p3181
(lp3182
g1715
asVearth globe asia-australia\u224a globe showing asia-australia
p3183
(lp3184
g1897
asVice skate
p3185
(lp3186
g952
asVflag for madagascar
p3187
(lp3188
S'&#x1f1f2&#x1f1ec;'
p3189
asVmarker
p3190
(lp3191
g1090
asVflag for bolivia
p3192
(lp3193
g2722
asVhouse building
p3194
(lp3195
S'&#x1f3e0;'
p3196
asVmarket
p3197
(lp3198
g353
asVtrinidad
p3199
(lp3200
S'&#x1f1f9&#x1f1f9;'
p3201
asVprojector
p3202
(lp3203
g1789
asVsake
p3204
(lp3205
g1728
asVconfounded
p3206
(lp3207
S'&#x1f616;'
p3208
asVangry
p3209
(lp3210
g2262
ag1983
aS'&#x1f620;'
p3211
ag1468
aS'&#x1f5ef;'
p3212
asVfrance
p3213
(lp3214
g1539
asVcote ivoire
p3215
(lp3216
S'&#x1f1e8&#x1f1ee;'
p3217
asVrecreational vehicle
p3218
(lp3219
g920
asVperu
p3220
(lp3221
S'&#x1f1f5&#x1f1ea;'
p3222
asVaries
p3223
(lp3224
g1368
ag1596
ag1596
asVdividers
p3225
(lp3226
g1113
asVtrophy
p3227
(lp3228
g447
ag447
asVguardsman
p3229
(lp3230
S'&#x1f482;'
p3231
ag3231
ag68
ag69
ag70
ag71
ag72
asVflag for micronesia
p3232
(lp3233
S'&#x1f1eb&#x1f1f2;'
p3234
asVwoman with bunny ears\u224a women partying
p3235
(lp3236
g2396
asVwaving hand sign\u224a waving hand
p3237
(lp3238
g2426
asVenvelope
p3239
(lp3240
g1093
ag1093
ag1095
ag1096
asVchocolate
p3241
(lp3242
g1724
asVblack club suit\u224a club suit
p3243
(lp3244
g2592
asVflag for indonesia
p3245
(lp3246
S'&#x1f1ee&#x1f1e9;'
p3247
asVfly
p3248
(lp3249
V&#x2708;
p3250
ag2127
ag1092
asVlowercase
p3251
(lp3252
g774
asVflag for japan
p3253
(lp3254
g1157
asVsteaming bowl
p3255
(lp3256
g1713
asVtokyo
p3257
(lp3258
S'&#x1f5fc;'
p3259
asVfortified
p3260
(lp3261
g396
asVcap
p3262
(lp3263
g882
ag607
asVflu
p3264
(lp3265
g1845
asVcat
p3266
(lp3267
g1829
ag2080
ag2081
ag2082
ag2083
ag2084
ag2085
ag2086
ag826
ag987
ag2093
ag2093
asVcocktail glass
p3268
(lp3269
g725
asVdiego garcia
p3270
(lp3271
S'&#x1f1e9&#x1f1ec;'
p3272
asVgrowing
p3273
(lp3274
g1021
asVferry
p3275
(lp3276
V&#x1f6a2;
p3277
ag934
ag934
asVclock face nine oclock\u224a nine o\u2019clock
p3278
(lp3279
g2046
asVguadeloupe
p3280
(lp3281
S'&#x1f1ec&#x1f1f5;'
p3282
asVsouth sudan
p3283
(lp3284
S'&#x1f1f8&#x1f1f8;'
p3285
asVheart
p3286
(lp3287
V&#x1f61a;
p3288
ag372
aS'&#x1f618;'
p3289
ag2082
ag3179
ag1657
ag1259
ag2023
ag2626
ag521
ag2225
ag1348
ag1021
ag532
ag1046
ag335
ag2608
ag1669
ag879
aS'&#x1f49f;'
p3290
ag992
ag1833
ag2461
asVcrazy
p3291
(lp3292
g1041
asVuruguay
p3293
(lp3294
S'&#x1f1fa&#x1f1fe;'
p3295
asVdecember
p3296
(lp3297
g378
asVconfused
p3298
(lp3299
S'&#x1f615;'
p3300
asVheard
p3301
(lp3302
S'&#x1f1ed&#x1f1f2;'
p3303
asVon with exclamation mark with left right arrow above\u224a on! arrow
p3304
(lp3305
g1278
asV11:00
p3306
(lp3307
g2047
asVbessie
p3308
(lp3309
g2231
asVclothing
p3310
(lp3311
S'&#x1f463;'
p3312
ag1670
ag1624
ag1027
ag390
ag1672
ag1183
ag1673
ag1674
ag1675
ag1676
ag747
ag1678
ag1679
ag1680
ag1681
ag1682
ag1683
ag1684
ag1487
ag607
ag1685
ag1386
ag1387
ag1388
asVpink
p3313
(lp3314
g2846
asVrays
p3315
(lp3316
g2186
asVscorpius
p3317
(lp3318
g2145
ag2502
ag2502
asVwinter
p3319
(lp3320
g378
asVsailboat
p3321
(lp3322
g930
ag930
asVflag for runion
p3323
(lp3324
S'&#x1f1f7&#x1f1ea;'
p3325
asVpine
p3326
(lp3327
g571
ag498
asVwrite
p3328
(lp3329
g2428
asV7:00
p3330
(lp3331
g2044
asVcardinal
p3332
(lp3333
g1262
ag1250
ag1265
ag1267
asVshinto
p3334
(lp3335
g2836
asVemoji modifier fitzpatrick type-4\u224a skin type-4
p3336
(lp3337
g2255
asVcongo republic
p3338
(lp3339
g1253
asVgrinning cat face with smiling eyes
p3340
(lp3341
g2080
asVnevis
p3342
(lp3343
S'&#x1f1f0&#x1f1f3;'
p3344
asVbottle with popping cork
p3345
(lp3346
g1991
asVmap
p3347
(lp3348
S'&#x1f5fa;'
p3349
ag1156
asVcocktail
p3350
(lp3351
g725
asVemoji modifier fitzpatrick type-5\u224a skin type-5
p3352
(lp3353
g2256
asVwhite flower
p3354
(lp3355
g1692
asVmotorway
p3356
(lp3357
g924
ag924
asVpurple heart
p3358
(lp3359
g2608
asV4th
p3360
(lp3361
g1365
asVmad
p3362
(lp3363
g2262
ag1983
ag3211
ag1468
ag3212
asVtramway
p3364
(lp3365
g944
asVdate
p3366
(lp3367
g1114
asVhear-no-evil monkey\u224a hear-no-evil
p3368
(lp3369
g2088
asVleft right arrow\u224a left-right arrow
p3370
(lp3371
g1270
asVdove
p3372
(lp3373
g2127
asVflag for french polynesia
p3374
(lp3375
g3119
asVman
p3376
(lp3377
S'&#x1f468;'
p3378
ag3378
ag13
ag14
ag15
ag16
ag17
ag2571
ag2286
ag2391
aS'&#x1f574;'
p3379
ag742
ag743
aS'&#x1f469&#x200d&#x2764&#xfe0f&#x200d&#x1f48b&#x200d&#x1f468;'
p3380
ag3380
ag2819
ag2819
aS'&#x1f469&#x200d&#x2764&#xfe0f&#x200d&#x1f468;'
p3381
ag3381
ag696
ag696
ag3134
aS'&#x1f468&#x200d&#x1f469&#x200d&#x1f467;'
p3382
ag3135
ag3136
aS'&#x1f468&#x200d&#x1f469&#x200d&#x1f467&#x200d&#x1f467;'
p3383
ag3137
ag3137
aS'&#x1f468&#x200d&#x1f468&#x200d&#x1f467;'
p3384
ag3384
ag3138
ag3138
ag3139
ag3139
aS'&#x1f468&#x200d&#x1f468&#x200d&#x1f467&#x200d&#x1f467;'
p3385
ag3385
ag1678
ag668
asVsurfing
p3386
(lp3387
S'&#x1f3c4;'
p3388
asVflag for gibraltar
p3389
(lp3390
S'&#x1f1ec&#x1f1ee;'
p3391
asVoctopus
p3392
(lp3393
g2138
ag2138
asVwheelchair
p3394
(lp3395
g961
asVtruck
p3396
(lp3397
g913
ag921
ag705
asVflag for belgium
p3398
(lp3399
S'&#x1f1e7&#x1f1ea;'
p3400
asVdisappointed face
p3401
(lp3402
S'&#x1f61e;'
p3403
asVgesture
p3404
(lp3405
g2087
ag2088
ag2089
aS'&#x1f64d;'
p3406
ag1984
ag2419
ag2420
ag2421
ag399
ag606
ag1923
asVcute
p3407
(lp3408
V&#x1f423;
p3409
asVright-pointing magnifying glass
p3410
(lp3411
g727
asVdownwards black arrow\u224a down arrow
p3412
(lp3413
g1265
asVshield
p3414
(lp3415
g1807
ag1807
asVcayman
p3416
(lp3417
g405
asVhaircut
p3418
(lp3419
g1013
ag1013
ag98
ag99
ag100
ag101
ag102
aS'&#x1f488;'
p3420
asVup-pointing small red triangle\u224a up button
p3421
(lp3422
g1290
asVcanary
p3423
(lp3424
S'&#x1f1ee&#x1f1e8;'
p3425
asVyears
p3426
(lp3427
g571
asVplayful
p3428
(lp3429
V&#x1f61b;
p3430
asVsake bottle and cup\u224a sake
p3431
(lp3432
g1728
asVcounterclockwise
p3433
(lp3434
g1276
asVeight pointed black star\u224a eight-pointed star
p3435
(lp3436
g3050
asVmeat on bone
p3437
(lp3438
g1236
asVworship
p3439
(lp3440
g1941
asVnegative squared latin capital letter p\u224a p button
p3441
(lp3442
g789
asVpolice
p3443
(lp3444
g2220
ag914
ag915
ag926
asVthumb
p3445
(lp3446
g1416
ag2424
asVhandgun
p3447
(lp3448
g560
asVflag for guatemala
p3449
(lp3450
g1967
asVunited kingdom
p3451
(lp3452
g3162
asVgem
p3453
(lp3454
g1688
asVmail
p3455
(lp3456
g1833
ag1094
ag1095
ag1096
ag1097
ag1098
ag1100
ag1101
ag1102
ag1103
ag1104
asVnorway
p3457
(lp3458
S'&#x1f1f3&#x1f1f4;'
p3459
asVmarshall
p3460
(lp3461
g1458
asVcircled latin capital letter m\u224a circled letter m
p3462
(lp3463
g785
asVbride with veil
p3464
(lp3465
g1975
ag83
ag84
ag85
ag86
ag87
asVraised hand with part between middle and ring fingers
p3466
(lp3467
g203
ag204
ag205
ag206
ag207
asVdirect hit
p3468
(lp3469
g1542
asVrewind
p3470
(lp3471
g1288
asVflag for egypt
p3472
(lp3473
S'&#x1f1ea&#x1f1ec;'
p3474
asVcheese wedge
p3475
(lp3476
g2159
asVdisappoint
p3477
(lp3478
V&#x1f625;
p3479
asVnot
p3480
(lp3481
g2087
ag2088
ag2089
ag2419
ag1769
ag967
ag968
ag384
ag969
ag970
ag971
ag972
ag1818
ag772
asVvideo camera
p3482
(lp3483
g1792
asVhalo
p3484
(lp3485
g1448
asVgrimacing face
p3486
(lp3487
S'&#x1f62c;'
p3488
asVname
p3489
(lp3490
g1131
asVkissing cat face with closed eyes
p3491
(lp3492
g2084
asVdrop
p3493
(lp3494
g1388
ag1475
asVblack scissors\u224a scissors
p3495
(lp3496
g1127
asVcheck-in
p3497
(lp3498
g939
asVbowling
p3499
(lp3500
g1754
ag1754
asVsri lanka
p3501
(lp3502
S'&#x1f1f1&#x1f1f0;'
p3503
asVbarbuda
p3504
(lp3505
g1007
asVexpressionless face
p3506
(lp3507
g1051
asVlarge blue diamond
p3508
(lp3509
g534
asVnegative squared cross mark\u224a cross mark button
p3510
(lp3511
g3046
asVturtle
p3512
(lp3513
V&#x1f422;
p3514
ag2130
ag2130
asVtaoist
p3515
(lp3516
g1857
asVsquare
p3517
(lp3518
g882
ag3046
ag1953
ag3051
ag735
ag3052
ag3053
ag480
ag3054
ag3055
ag3056
ag3060
ag3061
asVhonduras
p3519
(lp3520
g2763
asVsow
p3521
(lp3522
g2105
asVlatin
p3523
(lp3524
g773
ag774
ag711
asVkeycap digit zero
p3525
(lp3526
g764
asVmotorboat
p3527
(lp3528
g935
asVtorch
p3529
(lp3530
g1513
asVthumbs down sign
p3531
(lp3532
g233
ag234
ag235
ag236
ag237
asVbovine
p3533
(lp3534
g1896
asVwheel of dharma
p3535
(lp3536
g2404
asVunlock
p3537
(lp3538
g1801
asVrunion
p3539
(lp3540
g3325
asVbeetle
p3541
(lp3542
g331
ag332
asVaubergine\u224a eggplant
p3543
(lp3544
g1705
asVgirl
p3545
(lp3546
g1663
ag1663
ag8
ag9
ag10
ag11
ag12
ag2396
ag3382
ag3382
ag3135
ag3135
ag3383
ag3383
ag3383
ag3384
ag3384
ag3138
ag3138
ag3385
ag3385
ag3385
ag1863
ag1863
ag1864
ag1864
ag1866
ag1866
ag1866
asVworried
p3547
(lp3548
V&#x1f613;
p3549
aS'&#x1f61f;'
p3550
asVice cream
p3551
(lp3552
g1720
asVcard index dividers
p3553
(lp3554
g1113
asVwhite left pointing backhand index
p3555
(lp3556
g168
ag169
ag170
ag171
ag172
asVsquared id
p3557
(lp3558
g784
asVmobile phone
p3559
(lp3560
g1783
asVhappy person raising one hand
p3561
(lp3562
g128
ag129
ag130
ag131
ag132
asVspace
p3563
(lp3564
g453
ag1451
ag1452
ag2173
ag945
ag2410
ag2174
ag2175
ag2176
ag2177
ag2178
ag1219
ag2179
ag2180
ag2181
ag2182
ag2183
ag2184
ag2186
ag2187
ag2188
ag2190
ag1744
asValarm clock
p3565
(lp3566
g1740
asVfactory
p3567
(lp3568
S'&#x1f3ed;'
p3569
ag3569
asVclockwise rightwards and leftwards open circle arrows\u224a repeat button
p3570
(lp3571
g1281
asVblack down-pointing double triangle\u224a fast down button
p3572
(lp3573
g1292
asVnorthern ireland
p3574
(lp3575
g3162
asVblubber
p3576
(lp3577
g1548
asVclover
p3578
(lp3579
g339
asVmonster
p3580
(lp3581
g491
ag492
ag2294
ag1654
ag1450
ag1451
ag1452
aS'&#x1f916;'
p3582
ag1466
asVtempura
p3583
(lp3584
g708
asVcarp
p3585
(lp3586
g490
ag614
asVflag for macedonia
p3587
(lp3588
g2241
asVflag for ukraine
p3589
(lp3590
S'&#x1f1fa&#x1f1e6;'
p3591
asVmarina
p3592
(lp3593
g2341
asVcard
p3594
(lp3595
g1615
ag2461
ag2892
ag2592
ag1413
ag500
ag640
ag1113
ag1118
ag1128
asVcare
p3596
(lp3597
g518
asVsmall blue diamond
p3598
(lp3599
g535
asVno pedestrians
p3600
(lp3601
g972
asVwinking face
p3602
(lp3603
g1042
asVbritish
p3604
(lp3605
g3162
ag2388
ag1443
asVmotion
p3606
(lp3607
g2854
asVmouse face
p3608
(lp3609
g2110
asVplace
p3610
(lp3611
g2098
ag1691
ag430
ag1905
ag1906
ag1897
ag1907
ag3349
ag1156
ag1627
aS'&#x26f0;'
p3612
ag1295
ag2164
ag2165
ag996
ag2166
ag2167
ag2168
ag2300
aS'&#x1f3db;'
p3613
aS'&#x1f3d7;'
p3614
aS'&#x1f3d8;'
p3615
aS'&#x1f3d9;'
p3616
aS'&#x1f3da;'
p3617
ag3196
ag3094
ag1067
ag495
ag1068
ag684
ag1224
aS'&#x1f3e8;'
p3618
ag3180
ag459
ag441
aS'&#x1f3ec;'
p3619
ag3569
ag496
ag2399
ag433
ag3259
ag563
aS'&#x26ea;'
p3620
aS'&#x1f54c;'
p3621
aS'&#x1f54d;'
p3622
ag1590
ag1732
ag1733
ag2169
ag2170
ag888
ag2171
ag674
ag2172
ag1583
ag981
ag2173
ag3032
ag2403
ag2215
ag3420
aS'&#x1f3aa;'
p3623
ag1734
ag1735
ag897
ag898
ag899
ag900
ag901
ag902
ag456
ag903
ag904
ag905
ag906
ag907
ag908
ag909
ag362
ag910
ag911
ag912
ag913
ag914
ag915
ag916
ag917
ag918
ag919
ag920
ag921
ag705
ag922
ag381
ag923
ag924
ag925
ag926
ag837
ag927
ag928
ag929
ag930
ag931
ag932
ag933
ag934
ag935
ag936
ag937
ag938
ag939
ag940
ag941
ag942
ag444
ag943
ag944
ag945
ag2410
ag947
ag948
ag949
ag950
ag2174
ag2175
ag2176
ag2177
ag2178
ag1219
ag2179
ag2180
ag2181
ag2182
ag2183
ag2184
ag2187
ag2188
ag2189
ag528
ag2190
ag1635
ag1746
ag447
ag1440
ag1748
ag1303
ag1750
ag1751
ag1752
ag1753
ag1754
ag739
ag952
ag1759
ag1028
ag382
ag383
ag957
ag501
ag1123
ag750
ag959
ag601
ag840
ag873
ag671
ag699
ag963
ag964
ag628
ag965
ag966
ag384
ag972
ag1941
ag810
ag785
ag789
asVmassive
p3624
(lp3625
g1548
asVpaw prints
p3626
(lp3627
g2118
asVbulgaria
p3628
(lp3629
S'&#x1f1e7&#x1f1ec;'
p3630
asVthink
p3631
(lp3632
g1970
asVblood
p3633
(lp3634
g777
ag778
ag779
ag787
asVemotion
p3635
(lp3636
g1657
ag1259
ag2023
ag2626
ag521
ag2225
ag1348
ag1021
ag532
ag1046
ag335
ag2608
ag1669
ag879
ag3290
ag992
ag1833
ag348
ag1468
ag1470
ag1471
ag1472
ag1473
ag1474
ag3212
ag423
ag1687
ag1688
ag1475
ag1024
ag617
ag2461
asVcheese
p3637
(lp3638
g2159
ag1001
asVballpoint
p3639
(lp3640
g1016
asVcouch and lamp
p3641
(lp3642
g1737
asVdwelling
p3643
(lp3644
g356
asVophiuchus
p3645
(lp3646
g843
ag844
ag844
asVdash symbol\u224a dashing
p3647
(lp3648
g1472
asVdouble curly loop
p3649
(lp3650
g3048
asVrailway track
p3651
(lp3652
g925
asVsleeping symbol\u224a zzz
p3653
(lp3654
g348
asVclock face eleven-thirty\u224a eleven-thirty
p3655
(lp3656
g2918
asVone
p3657
(lp3658
g1317
ag2520
ag765
asVshipyard
p3659
(lp3660
g2341
asVflag for guernsey
p3661
(lp3662
g411
asVnegative squared latin capital letter o\u224a o button
p3663
(lp3664
g787
asVring
p3665
(lp3666
g1687
ag1687
asVopen
p3667
(lp3668
g1322
ag1823
aS'&#x1f605;'
p3669
ag1141
ag1825
ag1828
ag531
ag1829
ag1312
ag1082
ag1102
ag1103
ag1112
ag1801
asVflag for jamaica
p3670
(lp3671
g475
asVtram car
p3672
(lp3673
g907
asVogre
p3674
(lp3675
g491
asVairbus
p3676
(lp3677
g3250
asVcity
p3678
(lp3679
g566
ag3616
ag674
asVsilent
p3680
(lp3681
g1824
ag1764
ag1769
asVthinking face
p3682
(lp3683
S'&#x1f914;'
p3684
asVoptical disc
p3685
(lp3686
g1077
asVbookmark
p3687
(lp3688
g1090
ag1797
ag1797
asVyin
p3689
(lp3690
g1857
asVizakaya lantern\u224a red paper lantern
p3691
(lp3692
g501
asVbahamas
p3693
(lp3694
S'&#x1f1e7&#x1f1f8;'
p3695
asV2
p3696
(lp3697
g1166
ag2913
ag402
asVcarousel
p3698
(lp3699
V&#x1f3a0;
p3700
ag3032
asVwhite sun with small cloud\u224a sun behind small cloud
p3701
(lp3702
g2193
asVwhite
p3703
(lp3704
g524
asVanguilla
p3705
(lp3706
g365
asVfaroe
p3707
(lp3708
S'&#x1f1eb&#x1f1f4;'
p3709
asVspeaking
p3710
(lp3711
g834
asVweight lifter
p3712
(lp3713
g1325
ag308
ag309
ag310
ag311
ag312
asVeyes
p3714
(lp3715
g2878
aS'&#x1f440;'
p3716
asVhug
p3717
(lp3718
S'&#x1f917;'
p3719
asVglobe with meridians
p3720
(lp3721
g1907
asVfloppy
p3722
(lp3723
g2265
ag1076
asVmemo
p3724
(lp3725
g1110
ag1110
asVmontenegro
p3726
(lp3727
g1647
asVcornwall
p3728
(lp3729
g3162
asVsaint nick
p3730
(lp3731
g885
asVwomens symbol\u224a women\u2019s room
p3732
(lp3733
g669
asVheavy division sign
p3734
(lp3735
g2977
asVroyal
p3736
(lp3737
g1155
asV11
p3738
(lp3739
g2047
ag2918
asV10
p3740
(lp3741
g1842
ag2468
ag771
asVtelevision
p3742
(lp3743
g1790
ag1790
asV12
p3744
(lp3745
g1996
ag1900
asVdepressed
p3746
(lp3747
V&#x1f61e;
p3748
asV18
p3749
(lp3750
g772
asVbiohazard
p3751
(lp3752
g1394
asV10:00
p3753
(lp3754
g1842
asVathletic shoe\u224a running shoe
p3755
(lp3756
g1679
asVtired face
p3757
(lp3758
g486
asVtophat
p3759
(lp3760
g1487
asVrussia
p3761
(lp3762
S'&#x1f1f7&#x1f1fa;'
p3763
asVtractor
p3764
(lp3765
g922
ag922
asVangel
p3766
(lp3767
g1448
ag1454
asVgreece
p3768
(lp3769
S'&#x1f1ec&#x1f1f7;'
p3770
asVsan marino
p3771
(lp3772
S'&#x1f1f8&#x1f1f2;'
p3773
asVprostitution
p3774
(lp3775
g1958
asVsad
p3776
(lp3777
g720
ag3010
ag2674
ag2086
asVdash
p3778
(lp3779
g1472
ag820
asVsax
p3780
(lp3781
g1778
asVpastry
p3782
(lp3783
g1717
ag608
ag1723
asVflag for pitcairn islands
p3784
(lp3785
S'&#x1f1f5&#x1f1f3;'
p3786
asVanger
p3787
(lp3788
V&#x1f621;
p3789
asV1
p3790
(lp3791
g1317
ag2520
ag765
asVvertical traffic light
p3792
(lp3793
g927
asVmarathon
p3794
(lp3795
g1593
asVprosperity
p3796
(lp3797
g571
asVsilhouette
p3798
(lp3799
g834
ag1926
ag1927
asVtulip
p3800
(lp3801
g2152
ag2152
asVshocked
p3802
(lp3803
g1359
ag2708
asVflag for french southern territories
p3804
(lp3805
g3120
asVsnout
p3806
(lp3807
g2846
asVpalm tree
p3808
(lp3809
g1556
asVthermometer
p3810
(lp3811
g2238
ag2185
ag2185
asVintercardinal
p3812
(lp3813
g1263
ag1264
ag1266
ag1268
asVregistered
p3814
(lp3815
g762
asVclock face three oclock\u224a three o\u2019clock
p3816
(lp3817
g2017
asVbenin
p3818
(lp3819
g2246
asVbirthday cake
p3820
(lp3821
g608
asVfilm projector
p3822
(lp3823
g1789
asVprinter
p3824
(lp3825
g1072
ag1072
asVtheatre
p3826
(lp3827
g1734
asVchocolate bar
p3828
(lp3829
g1724
asVrevolving
p3830
(lp3831
g879
ag926
asVambulance
p3832
(lp3833
g912
ag912
asVsquared cjk unified ideograph-55b6\u224a squared operating ideograph
p3834
(lp3835
g799
asVflag for switzerland
p3836
(lp3837
S'&#x1f1e8&#x1f1ed;'
p3838
asVflag for north korea
p3839
(lp3840
g2577
asVsquared cjk unified ideograph-7a7a\u224a squared empty ideograph
p3841
(lp3842
g796
asVmultiply
p3843
(lp3844
g3045
ag803
asVamerica
p3845
(lp3846
S'&#x1f1fa&#x1f1f2;'
p3847
aS'&#x1f1fa&#x1f1f8;'
p3848
ag2715
asVpager
p3849
(lp3850
g1070
ag1070
asVluxembourg
p3851
(lp3852
S'&#x1f1f1&#x1f1fa;'
p3853
asVt-shirt
p3854
(lp3855
g1027
asVlove hotel
p3856
(lp3857
g3180
asVturks
p3858
(lp3859
S'&#x1f1f9&#x1f1e8;'
p3860
asVice hockey stick and puck
p3861
(lp3862
g1757
asVgyro
p3863
(lp3864
g2703
asVseafood
p3865
(lp3866
g1715
asVsteady
p3867
(lp3868
g3514
asVdrive
p3869
(lp3870
g2265
asVcircled ideograph congratulation\u224a circled congratulate ideograph
p3871
(lp3872
g797
asVsunset
p3873
(lp3874
g566
ag674
ag2172
asVsmall airplane
p3875
(lp3876
g938
asVflag for tokelau
p3877
(lp3878
S'&#x1f1f9&#x1f1f0;'
p3879
asV7:30
p3880
(lp3881
g2346
asVdetective
p3882
(lp3883
g3142
asVwalking
p3884
(lp3885
g1545
asVwithershins
p3886
(lp3887
g1276
asVshot
p3888
(lp3889
g1355
asVsteam locomotive\u224a locomotive
p3890
(lp3891
g897
asVatom
p3892
(lp3893
g813
asVbright
p3894
(lp3895
g1950
ag2186
ag2187
ag2188
ag1243
asVhelena
p3896
(lp3897
g1422
asVshoe
p3898
(lp3899
g1678
ag1679
ag1680
ag1681
ag1682
asVtiredness
p3900
(lp3901
g637
asVpanda face
p3902
(lp3903
g525
asVface with stuck-out tongue and tightly-closed eyes
p3904
(lp3905
S'&#x1f61d;'
p3906
asVflag for bangladesh
p3907
(lp3908
g2941
asVslot
p3909
(lp3910
g1735
asVslow
p3911
(lp3912
g1961
asVdice
p3913
(lp3914
g1762
asVbanknote with pound sign\u224a pound banknote
p3915
(lp3916
g866
asVsaints
p3917
(lp3918
g663
asV3
p3919
(lp3920
g2017
ag2623
ag1425
ag1073
ag766
asVtears
p3921
(lp3922
g720
asVblack
p3923
(lp3924
g524
asVhockey
p3925
(lp3926
g1756
ag1757
asVgem stone
p3927
(lp3928
g1688
asVkeycap digit three
p3929
(lp3930
g766
asVwool
p3931
(lp3932
V&#x1f411;
p3933
asVbissau
p3934
(lp3935
S'&#x1f1ec&#x1f1fc;'
p3936
asVpumpkin
p3937
(lp3938
g663
asVwaving hand sign
p3939
(lp3940
g248
ag249
ag250
ag251
ag252
asVshooting star
p3941
(lp3942
g2190
asVsavoring
p3943
(lp3944
g1186
asVflag for kuwait
p3945
(lp3946
g1195
asVflag for montserrat
p3947
(lp3948
S'&#x1f1f2&#x1f1f8;'
p3949
asVdove of peace\u224a dove
p3950
(lp3951
g2127
asVazerbaijan
p3952
(lp3953
S'&#x1f1e6&#x1f1ff;'
p3954
asVspeak-no-evil monkey\u224a speak-no-evil
p3955
(lp3956
g2089
asVspeaker with three sound waves\u224a speaker loud
p3957
(lp3958
g1425
asVflag for land islands
p3959
(lp3960
S'&#x1f1e6&#x1f1fd;'
p3961
asVnauru
p3962
(lp3963
S'&#x1f1f3&#x1f1f7;'
p3964
asVcelebrate
p3965
(lp3966
g426
asVflag for costa rica
p3967
(lp3968
S'&#x1f1e8&#x1f1f7;'
p3969
asVflag for isle of man
p3970
(lp3971
g414
asVartist
p3972
(lp3973
g1871
asVmorning
p3974
(lp3975
V&#x1f305;
p3976
ag888
ag2171
asVjoker
p3977
(lp3978
g1413
asVflag for faroe islands
p3979
(lp3980
g3709
asVclock face two-thirty\u224a two-thirty
p3981
(lp3982
g2913
asVeuropean post office\u224a post office
p3983
(lp3984
g1068
asVtent
p3985
(lp3986
g1733
ag1733
ag3623
asVxmas
p3987
(lp3988
g378
asVcrystal
p3989
(lp3990
g1455
asVrwanda
p3991
(lp3992
g2849
asVfarris
p3993
(lp3994
g2402
asVfire engine
p3995
(lp3996
g913
asVflag for luxembourg
p3997
(lp3998
g3853
asVkeyboard
p3999
(lp4000
g1780
ag1786
ag1786
asVseat
p4001
(lp4002
g941
ag941
asVcollege
p4003
(lp4004
V&#x1f3eb;
p4005
asVparking
p4006
(lp4007
g789
asVpisces
p4008
(lp4009
g2135
ag2783
ag2783
asVcalendar
p4010
(lp4011
g1114
ag1114
ag1115
ag1117
asVsport
p4012
(lp4013
g381
ag447
ag1747
ag1440
ag1748
ag1303
ag1749
ag1750
ag1751
ag1752
ag1753
ag1754
ag1755
ag1756
ag1757
ag1758
ag1400
ag739
aS'&#x1f3cc;'
p4014
ag952
ag1759
ag1028
ag1551
ag953
ag1632
ag3388
ag954
ag955
ag956
ag1325
ag382
ag383
ag957
ag958
ag1261
ag750
ag384
asVsmiling
p4015
(lp4016
g1949
asVloudspeaker
p4017
(lp4018
g1426
asVpalette
p4019
(lp4020
g976
asVcamping
p4021
(lp4022
g2165
ag2165
ag1733
asVbicyclist
p4023
(lp4024
g382
ag382
ag313
ag314
ag315
ag316
ag317
ag383
asVcrooked
p4025
(lp4026
g1601
asVlabel
p4027
(lp4028
g1798
ag1798
asVteacup
p4029
(lp4030
g436
asVpump
p4031
(lp4032
g923
asVcongo-brazzaville
p4033
(lp4034
g1253
asVdiamonds
p4035
(lp4036
g2892
asVgeometric
p4037
(lp4038
g3051
ag735
ag3052
ag3053
ag480
ag3054
ag3055
ag3056
ag3057
ag534
ag3058
ag535
ag3059
ag2687
ag1477
ag1893
ag3060
ag3061
ag3062
ag3063
ag3064
ag536
asVface with open mouth
p4039
(lp4040
g1825
asVcheckered
p4041
(lp4042
g750
asVvertical
p4043
(lp4044
g1621
asVbellhop bell
p4045
(lp4046
g1736
asVworried face
p4047
(lp4048
g3550
asVloudly crying face
p4049
(lp4050
g2674
asVarrow pointing rightwards then curving downwards\u224a right arrow curving down
p4051
(lp4052
g1274
asVperson with blond hair
p4053
(lp4054
S'&#x1f471;'
p4055
ag38
ag39
ag40
ag41
ag42
asVguitar
p4056
(lp4057
g1779
ag1779
asVhotsprings
p4058
(lp4059
g981
asVrugby
p4060
(lp4061
g1751
asVlibya
p4062
(lp4063
S'&#x1f1f1&#x1f1fe;'
p4064
asVnorthern mariana
p4065
(lp4066
S'&#x1f1f2&#x1f1f5;'
p4067
asVsparkling heart
p4068
(lp4069
g1348
asVresidence
p4070
(lp4071
g396
asV1:30
p4072
(lp4073
g2520
asVquiet
p4074
(lp4075
g1824
ag1764
ag1769
asVrestroom
p4076
(lp4077
g668
ag669
ag670
ag670
ag671
asVpersonal
p4078
(lp4079
g1071
asVmath
p4080
(lp4081
g465
ag1580
ag2977
asVberry
p4082
(lp4083
g1703
asVcredit card
p4084
(lp4085
g640
asVflipper
p4086
(lp4087
g850
asVrailway
p4088
(lp4089
g897
ag898
ag899
ag900
ag901
ag456
ag903
ag906
ag925
ag444
asVhappy person raising one hand\u224a happy person raising hand
p4090
(lp4091
g2421
asVpakistan
p4092
(lp4093
S'&#x1f1f5&#x1f1f0;'
p4094
asVblue heart
p4095
(lp4096
g532
asV12:00
p4097
(lp4098
g1996
asV6:30
p4099
(lp4100
g2915
asVcancer
p4101
(lp4102
g2140
ag2780
ag2780
asVflag for ceuta & melilla
p4103
(lp4104
g2905
asVcolor
p4105
(lp4106
g3976
asVpot
p4107
(lp4108
g1708
ag860
asVjeans
p4109
(lp4110
g390
ag390
asVfootball
p4111
(lp4112
g1750
ag1751
asVpoo
p4113
(lp4114
g1466
asVpole
p4115
(lp4116
g3420
ag1759
asVmongolia
p4117
(lp4118
S'&#x1f1f2&#x1f1f3;'
p4119
asVboar
p4120
(lp4121
g2106
ag2106
asVcuraao
p4122
(lp4123
g1480
asVcomoros
p4124
(lp4125
S'&#x1f1f0&#x1f1f2;'
p4126
asVboat
p4127
(lp4128
g2341
ag930
ag931
ag932
ag934
ag935
asVtornado
p4129
(lp4130
g472
asVturkey
p4131
(lp4132
g2119
ag2119
aS'&#x1f1f9&#x1f1f7;'
p4133
asVland
p4134
(lp4135
g3961
asVwest
p4136
(lp4137
g1267
aS'&#x1f1ea&#x1f1ed;'
p4138
asVairlines
p4139
(lp4140
g3250
asVmark
p4141
(lp4142
g1657
ag992
ag1090
ag1797
ag1278
ag2814
ag2816
ag803
ag3046
ag3049
ag755
ag756
ag757
ag758
ag759
ag760
ag693
ag791
asVtropical
p4143
(lp4144
g2136
ag1729
asVsouth georgia
p4145
(lp4146
S'&#x1f1ec&#x1f1f8;'
p4147
asVhelicopter
p4148
(lp4149
g2703
ag942
ag942
asVengine
p4150
(lp4151
g2014
ag897
ag913
asVdirection
p4152
(lp4153
g1262
ag1263
ag1250
ag1264
ag1265
ag1266
ag1267
ag1268
asVshopping
p4154
(lp4155
g1677
asVblessing
p4156
(lp4157
g1155
asVtiger
p4158
(lp4159
g2094
ag2095
ag2095
asVcarve
p4160
(lp4161
g663
asVwales
p4162
(lp4163
g3162
asVsquared cjk unified ideograph-7533\u224a squared apply ideograph
p4164
(lp4165
g794
asVfoggy
p4166
(lp4167
g2169
asVpublic address loudspeaker\u224a loudspeaker
p4168
(lp4169
g1426
asVblack large square
p4170
(lp4171
g3055
asVsound
p4172
(lp4173
g1057
ag1764
ag1765
ag1766
ag1425
ag1426
ag1767
ag515
ag1768
ag1769
ag1770
ag1771
ag1772
ag1773
ag894
ag1774
ag1775
ag1776
ag1778
ag1779
ag1780
ag1781
ag1782
ag984
ag1784
ag820
ag1283
ag1284
ag1285
ag1286
ag1287
ag1288
ag1289
ag1291
ag1292
ag1621
ag1953
aS'&#x23fa;'
p4174
ag2566
asVblowfish
p4175
(lp4176
g2137
ag2137
asVflag for portugal
p4177
(lp4178
S'&#x1f1f5&#x1f1f9;'
p4179
asVseedling
p4180
(lp4181
g2153
ag2153
asVclock face eight-thirty\u224a eight-thirty
p4182
(lp4183
g2916
asVnewspaper
p4184
(lp4185
g1795
ag1795
ag1796
asVblack circle for record\u224a record button
p4186
(lp4187
g4174
asVwry
p4188
(lp4189
g2083
asVhushed face
p4190
(lp4191
g1336
asVpurse
p4192
(lp4193
g1675
ag1675
asVtelephone
p4194
(lp4195
g1783
ag1260
ag984
ag1784
ag1817
ag1818
ag1819
ag1820
asVsleeping
p4196
(lp4197
g345
asVderelict house building
p4198
(lp4199
g3617
asVdecoration
p4200
(lp4201
g571
asVsahara
p4202
(lp4203
g4138
asVironic
p4204
(lp4205
g2083
asVhash
p4206
(lp4207
g763
asVrugby football
p4208
(lp4209
g1751
asVflag for moldova
p4210
(lp4211
S'&#x1f1f2&#x1f1e9;'
p4212
asVhelium
p4213
(lp4214
g604
asVbar chart
p4215
(lp4216
g1120
asVhelmet
p4217
(lp4218
g539
asVsynagogue
p4219
(lp4220
g3622
ag3622
asVman in business suit levitating
p4221
(lp4222
g3379
asVdoctor
p4223
(lp4224
g1354
ag684
ag1355
ag1356
asVfirst quarter moon symbol\u224a first quarter moon
p4225
(lp4226
g2176
asV10:30
p4227
(lp4228
g2468
asVbowl
p4229
(lp4230
g1713
asVflag for so tom & prncipe
p4231
(lp4232
S'&#x1f1f8&#x1f1f9;'
p4233
asVethiopia
p4234
(lp4235
S'&#x1f1ea&#x1f1f9;'
p4236
asVbermuda
p4237
(lp4238
g2268
asVjapanese castle
p4239
(lp4240
g496
asVflag for cape verde
p4241
(lp4242
g2535
asVclammy
p4243
(lp4244
g3549
asVreminder
p4245
(lp4246
g619
asVdocument
p4247
(lp4248
g1087
ag1089
asVpan
p4249
(lp4250
g554
asVwaning crescent moon symbol\u224a waning crescent moon
p4251
(lp4252
g2180
asVsee
p4253
(lp4254
g2087
asVsingapore
p4255
(lp4256
S'&#x1f1f8&#x1f1ec;'
p4257
asVchelonian
p4258
(lp4259
g3514
asVmunch
p4260
(lp4261
g1872
asVrunning
p4262
(lp4263
g1593
ag1472
ag1028
asVfruit
p4264
(lp4265
g1391
ag1693
ag1694
ag1695
ag1696
ag1697
ag1698
ag1699
ag1047
ag1700
ag1701
ag1702
ag1703
asVbarber
p4266
(lp4267
g1013
ag3420
asVtwo
p4268
(lp4269
g1166
ag2913
ag402
asVstatue
p4270
(lp4271
g563
ag601
asVcomet
p4272
(lp4273
g1744
ag1744
asVfootprint
p4274
(lp4275
g3312
asVhammer and wrench
p4276
(lp4277
g1517
asVweep
p4278
(lp4279
g3008
asVtotally
p4280
(lp4281
g2708
asVburrito
p4282
(lp4283
g2162
ag2162
asVflag for croatia
p4284
(lp4285
S'&#x1f1ed&#x1f1f7;'
p4286
asVranch
p4287
(lp4288
g356
asVwriting hand
p4289
(lp4290
g2428
ag263
ag264
ag265
ag266
ag267
asVrelief
p4291
(lp4292
g3479
asVbottle
p4293
(lp4294
g1727
ag1728
ag1991
asVjoystick
p4295
(lp4296
g1761
ag1761
asVflag for vietnam
p4297
(lp4298
g2908
asVsplashing sweat symbol\u224a sweat droplets
p4299
(lp4300
g1471
asVperforming arts
p4301
(lp4302
g1734
asVlivestock
p4303
(lp4304
V&#x1f414;
p4305
asVman and woman holding hands
p4306
(lp4307
g742
asVracehorse
p4308
(lp4309
g2098
ag954
asVbactrian camel\u224a two-hump camel
p4310
(lp4311
g1497
asVorthodox cross
p4312
(lp4313
S'&#x2626;'
p4314
asVpolish
p4315
(lp4316
g518
asVspeed
p4317
(lp4318
g2833
ag899
ag900
asVflag for azerbaijan
p4319
(lp4320
g3954
asVbarbados
p4321
(lp4322
g3165
asVblow
p4323
(lp4324
g1058
ag1059
asVannouncement
p4325
(lp4326
g847
asVdeath
p4327
(lp4328
g2294
ag1654
ag1813
ag1814
asVsnowboarder
p4329
(lp4330
g1632
asVthinking
p4331
(lp4332
g3684
asVrose
p4333
(lp4334
g2148
ag2148
asVunamused face
p4335
(lp4336
S'&#x1f612;'
p4337
asVdesktop
p4338
(lp4339
g542
asVinstrument
p4340
(lp4341
g1057
ag1778
ag1779
ag1780
ag1781
ag1782
asV9:30
p4342
(lp4343
g2917
asV4
p4344
(lp4345
g339
ag340
ag341
ag342
asVstopwatch
p4346
(lp4347
g1741
ag1741
asVflag for bulgaria
p4348
(lp4349
g3630
asVflag for samoa
p4350
(lp4351
S'&#x1f1fc&#x1f1f8;'
p4352
asVpill
p4353
(lp4354
g1356
ag1356
asVwarning sign\u224a warning
p4355
(lp4356
g965
asVskier
p4357
(lp4358
g953
asVswim
p4359
(lp4360
g1673
ag955
asVround pushpin
p4361
(lp4362
g1123
asVfrown
p4363
(lp4364
g3748
aS'&#x2639;'
p4365
ag2407
ag1828
ag3406
asVflag for spain
p4366
(lp4367
S'&#x1f1ea&#x1f1f8;'
p4368
asVruler
p4369
(lp4370
g717
ag1126
asVwhite sun behind cloud\u224a sun behind large cloud
p4371
(lp4372
g2194
asVdart
p4373
(lp4374
g1542
asVdark
p4375
(lp4376
g566
ag1671
ag2174
asVdepartment
p4377
(lp4378
g2801
ag3619
asVdiaphoresis
p4379
(lp4380
g3549
asVbaby symbol
p4381
(lp4382
g962
asVmoo
p4383
(lp4384
g2231
asVbandage
p4385
(lp4386
g721
asVworld
p4387
(lp4388
g1905
ag1906
ag1897
ag1907
ag3349
asVpostal
p4389
(lp4390
g515
asVdisappointed
p4391
(lp4392
g3748
ag677
ag3403
asVburkina faso
p4393
(lp4394
g1054
asVgrin
p4395
(lp4396
V&#x1f601;
p4397
aS'&#x1f600;'
p4398
ag2007
ag2080
asVfortune
p4399
(lp4400
g571
ag1455
ag462
asVstreamers
p4401
(lp4402
g490
asVlightning
p4403
(lp4404
g2195
ag368
asVflag for united arab emirates
p4405
(lp4406
g876
asVnose
p4407
(lp4408
g2846
aS'&#x1f443;'
p4409
ag4409
ag278
ag279
ag280
ag281
ag282
ag2107
asVflag for nauru
p4410
(lp4411
g3964
asVtower
p4412
(lp4413
g396
ag3259
asVclap
p4414
(lp4415
g2427
asVflag for martinique
p4416
(lp4417
S'&#x1f1f2&#x1f1f6;'
p4418
asVevergreen
p4419
(lp4420
g378
ag1555
asVsneaker
p4421
(lp4422
g1679
asVbonaire
p4423
(lp4424
g1230
asVthumbs down
p4425
(lp4426
g2424
asVfull moon symbol\u224a full moon
p4427
(lp4428
g2178
asVuppercase
p4429
(lp4430
g773
asVlebanon
p4431
(lp4432
g680
asVflag for australia
p4433
(lp4434
S'&#x1f1e6&#x1f1fa;'
p4435
asVperspiration
p4436
(lp4437
V&#x1f605;
p4438
asVcancel
p4439
(lp4440
g3045
ag803
asVflag for vanuatu
p4441
(lp4442
S'&#x1f1fb&#x1f1fa;'
p4443
asVclosed umbrella
p4444
(lp4445
g1386
asVslice
p4446
(lp4447
g1001
ag1723
asVtennis racquet and ball\u224a tennis
p4448
(lp4449
g1752
asVflag for sint maarten
p4450
(lp4451
S'&#x1f1f8&#x1f1fd;'
p4452
asVsudan
p4453
(lp4454
S'&#x1f1f8&#x1f1e9;'
p4455
ag3285
asVbento
p4456
(lp4457
g1709
asVopen mailbox with lowered flag
p4458
(lp4459
g1103
asVflag for guinea-bissau
p4460
(lp4461
g3936
asVmoon
p4462
(lp4463
g1937
ag2174
ag2175
ag2176
ag2177
ag2178
ag1219
ag2179
ag2180
ag2181
ag2182
ag2183
ag2184
ag2187
ag616
asVknife
p4464
(lp4465
g430
ag555
ag556
ag1805
asVsmiley
p4466
(lp4467
g4397
asVrelieved face
p4468
(lp4469
S'&#x1f60c;'
p4470
asVleaf fluttering in wind
p4471
(lp4472
g1058
asVblack small square
p4473
(lp4474
g3051
asVanticlockwise
p4475
(lp4476
g1276
asVbroken
p4477
(lp4478
g521
asVblack square button
p4479
(lp4480
g3060
asVthailand
p4481
(lp4482
S'&#x1f1f9&#x1f1ed;'
p4483
asVflag for saudi arabia
p4484
(lp4485
S'&#x1f1f8&#x1f1e6;'
p4486
asVraised hand with fingers splayed
p4487
(lp4488
g2069
ag213
ag214
ag215
ag216
ag217
asVon
p4489
(lp4490
g1278
asVom
p4491
(lp4492
S'&#x1f549;'
p4493
asVok
p4494
(lp4495
g2420
ag2423
ag788
asVregistered sign\u224a registered
p4496
(lp4497
g762
asVoh
p4498
(lp4499
g2085
asVisland
p4500
(lp4501
g2167
ag2297
aS'&#x1f1e7&#x1f1fb;'
p4502
ag2725
ag2997
ag3079
ag2629
ag2843
ag3709
ag4147
ag3303
ag3425
ag2388
ag405
ag1458
ag4067
ag829
ag3786
ag1569
ag3860
ag3847
ag1443
ag2715
asVshrimp
p4503
(lp4504
g708
asVwolf
p4505
(lp4506
g2092
asVox
p4507
(lp4508
g2101
ag2101
ag2778
asVstars and stripes
p4509
(lp4510
g3848
asVroad
p4511
(lp4512
g654
ag924
asVwaving white flag
p4513
(lp4514
g1810
asVdagger
p4515
(lp4516
g1805
asVcommunication
p4517
(lp4518
g1426
ag1767
ag515
ag1783
ag1260
ag1784
ag1070
ag856
ag1079
ag1795
ag1094
ag1095
ag1096
ag1097
ag1098
ag1099
ag1100
ag1101
ag1102
ag1103
ag1104
ag1107
ag1016
ag1108
ag1109
ag1110
ag1125
ag1817
ag1818
ag1819
ag1820
asVslot machine
p4519
(lp4520
g1735
asVempress
p4521
(lp4522
g1155
asVleft speech bubble\u224a eye in speech bubble
p4523
(lp4524
S'&#x1f441&#x200d&#x1f5e8;'
p4525
asVelementary
p4526
(lp4527
g4005
asVcopyright sign\u224a copyright
p4528
(lp4529
g761
asVracquet
p4530
(lp4531
g1752
ag1400
asVbreath
p4532
(lp4533
g468
asVgraduation cap
p4534
(lp4535
g607
asVflag for liberia
p4536
(lp4537
S'&#x1f1f1&#x1f1f7;'
p4538
asVflag for french guiana
p4539
(lp4540
g3117
asVferris
p4541
(lp4542
g2403
asVlow
p4543
(lp4544
g1766
ag1242
asV4:30
p4545
(lp4546
g341
asVfrog face
p4547
(lp4548
g2128
asVhen
p4549
(lp4550
g4305
asVbubble
p4551
(lp4552
g4525
ag1474
ag3212
ag423
asVcrescent moon
p4553
(lp4554
g2181
asVpot of food
p4555
(lp4556
g1708
asVjug
p4557
(lp4558
g557
asVflag for vatican city
p4559
(lp4560
g1920
asVspider
p4561
(lp4562
g1689
ag1689
ag1690
asVflag for estonia
p4563
(lp4564
g2796
asVreflective
p4565
(lp4566
g1970
asVflag for st. barthlemy
p4567
(lp4568
S'&#x1f1e7&#x1f1f1;'
p4569
asVdromedary
p4570
(lp4571
g2108
asVoctober
p4572
(lp4573
g663
asVbullet
p4574
(lp4575
g900
asVrage
p4576
(lp4577
g3789
ag1983
asVvice
p4578
(lp4579
g1521
asVfalklands
p4580
(lp4581
g2843
asVvhs
p4582
(lp4583
g1793
asVflirt
p4584
(lp4585
g2493
asVstrawberry
p4586
(lp4587
g1703
ag1703
asVchristmas tree
p4588
(lp4589
g609
asVflag for falkland islands
p4590
(lp4591
g2843
asVgrinning face
p4592
(lp4593
g4398
asVtoilet
p4594
(lp4595
g947
ag947
asVab
p4596
(lp4597
g778
asVcinema
p4598
(lp4599
g1787
ag1788
ag1789
ag1816
ag1816
asVtaste
p4600
(lp4601
g3906
asVwaxing crescent moon symbol\u224a waxing crescent moon
p4602
(lp4603
g2175
asVlast quarter moon symbol\u224a last quarter moon
p4604
(lp4605
g2179
asVlesotho
p4606
(lp4607
g1660
asVtshirt
p4608
(lp4609
g1027
asVperson with pouting face
p4610
(lp4611
g108
ag109
ag110
ag111
ag112
asVplanets
p4612
(lp4613
V&#x1f303;
p4614
asVflag for united kingdom
p4615
(lp4616
g3162
asVnerd
p4617
(lp4618
g1964
asVfilm
p4619
(lp4620
g1788
ag1789
ag1816
asVcream
p4621
(lp4622
g1718
ag1720
asVfuel pump
p4623
(lp4624
g923
asVclapping hands sign
p4625
(lp4626
g253
ag254
ag255
ag256
ag257
asVpensive
p4627
(lp4628
g1970
ag1605
asVantenna
p4629
(lp4630
g1079
ag1817
asVflag for south africa
p4631
(lp4632
S'&#x1f1ff&#x1f1e6;'
p4633
asVhatching chick
p4634
(lp4635
g2122
asVstorage
p4636
(lp4637
g2265
asVflag for chile
p4638
(lp4639
g2316
asVyellow heart
p4640
(lp4641
g335
asVfield
p4642
(lp4643
g1756
asVcircled ideograph advantage\u224a circled advantage ideograph
p4644
(lp4645
g508
asVflag for singapore
p4646
(lp4647
g4257
asVastronaut
p4648
(lp4649
g453
asVvanuatu
p4650
(lp4651
g4443
asVno one under eighteen symbol\u224a no one under eighteen
p4652
(lp4653
g772
asVwhite sun behind cloud with rain\u224a sun behind cloud with rain
p4654
(lp4655
g1383
asVukraine
p4656
(lp4657
g3591
asVbouvet
p4658
(lp4659
g4502
asVpoop
p4660
(lp4661
g1466
asVwinking
p4662
(lp4663
g1041
asVtimer clock
p4664
(lp4665
g1742
asVflag for iran
p4666
(lp4667
S'&#x1f1ee&#x1f1f7;'
p4668
asVsymbol
p4669
(lp4670
g2253
ag2254
ag2255
ag2256
ag2257
ag3290
ag992
ag348
ag1468
ag3212
ag738
ag1692
ag2836
ag1996
ag1900
ag1317
ag2520
ag1166
ag2913
ag2017
ag2623
ag340
ag341
ag2042
ag2914
ag2043
ag2915
ag2044
ag2346
ag2045
ag2916
ag2046
ag2917
ag1842
ag2468
ag2047
ag2918
ag368
ag1615
ag2461
ag2892
ag2592
ag353
ag867
ag868
ag1808
ag840
ag873
ag960
ag961
ag668
ag669
ag670
ag962
ag671
ag699
ag963
ag964
ag628
ag965
ag966
ag967
ag968
ag384
ag969
ag970
ag971
ag972
ag2754
ag1394
ag1262
ag1263
ag1250
ag1264
ag1265
ag1266
ag1267
ag1268
ag1269
ag1270
ag1271
ag1272
ag1273
ag1274
ag1275
ag1276
ag1277
ag891
ag1278
ag1279
ag1207
ag813
ag4493
aS'&#x2721;'
p4671
ag2404
ag1857
ag2597
ag4314
ag3147
ag3044
ag462
ag393
aS'&#x269c;'
p4672
ag1506
ag973
ag2814
ag2815
ag2816
ag3045
ag803
ag3046
ag465
ag1580
ag2977
ag3047
ag3048
ag3049
ag2475
ag3050
ag1349
ag755
ag756
ag757
ag758
ag759
ag760
ag820
ag761
ag762
ag693
ag1596
ag2778
ag2779
ag2780
ag2781
ag1664
ag2338
ag2502
ag2782
ag1247
ag2202
ag2783
ag844
ag1280
ag1281
ag1282
ag1283
ag1284
ag1285
ag1286
ag1287
ag1288
ag1289
ag1290
ag1291
ag325
ag1292
ag1621
ag1953
ag4174
ag2566
ag1816
ag1242
ag1243
ag1817
ag1818
ag1819
ag1820
ag763
ag2868
ag764
ag765
ag402
ag766
ag342
ag767
ag768
ag769
ag714
ag770
ag771
ag598
ag772
ag773
ag774
ag775
ag776
ag711
ag777
ag778
ag779
ag780
ag781
ag782
ag783
ag784
ag785
ag572
ag786
ag787
ag788
ag789
ag790
ag791
ag792
ag503
ag504
ag505
ag506
ag507
ag508
ag509
ag510
ag511
ag793
ag794
ag795
ag796
ag797
ag798
ag799
ag800
ag3051
ag735
ag3052
ag3053
ag480
ag3054
ag3055
ag3056
ag3057
ag534
ag3058
ag535
ag3059
ag2687
ag1477
ag1893
ag3060
ag3061
ag3062
ag3063
ag3064
ag536
asVpear
p4673
(lp4674
g1700
ag1700
asVflag for kiribati
p4675
(lp4676
S'&#x1f1f0&#x1f1ee;'
p4677
asVwaving
p4678
(lp4679
g2426
ag1810
ag1811
asVgua pi mao
p4680
(lp4681
g2286
asVjapanese goblin\u224a goblin
p4682
(lp4683
g492
asVsnitch
p4684
(lp4685
g1601
asVledger
p4686
(lp4687
g1086
ag1086
asVdecorated
p4688
(lp4689
g1080
asVfinals
p4690
(lp4691
g637
asVcuracao
p4692
(lp4693
g1480
asVbuilding
p4694
(lp4695
g3613
ag3614
ag3615
ag3616
ag3617
ag3196
ag3094
ag1067
ag495
ag1068
ag684
ag1224
ag3618
ag3180
ag459
ag441
ag3619
ag3569
ag496
ag2399
ag3620
ag674
ag2172
asVflag for comoros
p4696
(lp4697
g4126
asVuzbekistan
p4698
(lp4699
S'&#x1f1fa&#x1f1ff;'
p4700
asVjapanese post office
p4701
(lp4702
g495
asVmask
p4703
(lp4704
g1845
ag1354
ag1734
asVsmooch
p4705
(lp4706
V&#x1f619;
p4707
asVflag for ghana
p4708
(lp4709
S'&#x1f1ec&#x1f1ed;'
p4710
asVmalvinas
p4711
(lp4712
g2843
asVsmirk
p4713
(lp4714
g1890
asVshuttlecock
p4715
(lp4716
g1400
asVtype-3
p4717
(lp4718
g4
ag9
ag14
ag19
ag24
ag29
ag34
ag39
ag44
ag49
ag54
ag59
ag64
ag69
ag74
ag79
ag84
ag89
ag94
ag99
ag104
ag109
ag114
ag119
ag124
ag129
ag134
ag139
ag144
ag149
ag154
ag159
ag164
ag169
ag174
ag179
ag184
ag189
ag194
ag199
ag204
ag209
ag214
ag219
ag224
ag229
ag234
ag239
ag244
ag249
ag254
ag259
ag264
ag269
ag274
ag279
ag284
ag289
ag294
ag299
ag304
ag309
ag314
ag319
asVtype-5
p4719
(lp4720
g6
ag11
ag16
ag21
ag26
ag31
ag36
ag41
ag46
ag51
ag56
ag61
ag66
ag71
ag76
ag81
ag86
ag91
ag96
ag101
ag106
ag111
ag116
ag121
ag126
ag131
ag136
ag141
ag146
ag151
ag156
ag161
ag166
ag171
ag176
ag181
ag186
ag191
ag196
ag201
ag206
ag211
ag216
ag221
ag226
ag231
ag236
ag241
ag246
ag251
ag256
ag261
ag266
ag271
ag276
ag281
ag286
ag291
ag296
ag301
ag306
ag311
ag316
ag321
asVtype-4
p4721
(lp4722
g5
ag10
ag15
ag20
ag25
ag30
ag35
ag40
ag45
ag50
ag55
ag60
ag65
ag70
ag75
ag80
ag85
ag90
ag95
ag100
ag105
ag110
ag115
ag120
ag125
ag130
ag135
ag140
ag145
ag150
ag155
ag160
ag165
ag170
ag175
ag180
ag185
ag190
ag195
ag200
ag205
ag210
ag215
ag220
ag225
ag230
ag235
ag240
ag245
ag250
ag255
ag260
ag265
ag270
ag275
ag280
ag285
ag290
ag295
ag300
ag305
ag310
ag315
ag320
asVtype-6
p4723
(lp4724
g7
ag12
ag17
ag22
ag27
ag32
ag37
ag42
ag47
ag52
ag57
ag62
ag67
ag72
ag77
ag82
ag87
ag92
ag97
ag102
ag107
ag112
ag117
ag122
ag127
ag132
ag137
ag142
ag147
ag152
ag157
ag162
ag167
ag172
ag177
ag182
ag187
ag192
ag197
ag202
ag207
ag212
ag217
ag222
ag227
ag232
ag237
ag242
ag247
ag252
ag257
ag262
ag267
ag272
ag277
ag282
ag287
ag292
ag297
ag302
ag307
ag312
ag317
ag322
asVmountain bicyclist\u224a mountain biker
p4725
(lp4726
g383
asVchinese
p4727
(lp4728
g793
ag794
ag795
ag796
ag797
ag798
ag799
ag800
asVforbidden
p4729
(lp4730
g2087
ag2088
ag2089
ag2419
ag1769
ag967
ag968
ag384
ag969
ag970
ag971
ag972
ag1818
ag772
asVmartinique
p4731
(lp4732
g4418
asVdollar
p4733
(lp4734
g1091
ag864
ag1092
ag868
asVromania
p4735
(lp4736
S'&#x1f1f7&#x1f1f4;'
p4737
asVflag for cte d\u2019ivoire
p4738
(lp4739
g3217
asVface screaming in fear
p4740
(lp4741
g1872
asVthoughtful
p4742
(lp4743
g1970
asVface with stuck-out tongue and winking eye
p4744
(lp4745
g1043
asVold key
p4746
(lp4747
g1804
asVsmoking
p4748
(lp4749
g1812
ag969
asVdish
p4750
(lp4751
g1079
asVdisk
p4752
(lp4753
g2265
ag1075
ag1076
ag1077
ag1078
asVflag for andorra
p4754
(lp4755
S'&#x1f1e6&#x1f1e9;'
p4756
asVchildren
p4757
(lp4758
g604
asVclockwise downwards and upwards open circle arrows\u224a clockwise vertical arrows
p4759
(lp4760
g1275
asVtv
p4761
(lp4762
g1790
asVmilky way
p4763
(lp4764
g2173
ag2173
asVsmiling face with horns
p4765
(lp4766
g1449
asVnational park
p4767
(lp4768
g2168
ag2168
asVdairy
p4769
(lp4770
g1896
asVspain
p4771
(lp4772
g4368
asVunicorn face
p4773
(lp4774
g2099
asVsmile
p4775
(lp4776
g4397
ag2007
ag1322
ag1823
ag3669
ag1141
aS'&#x1f60a;'
p4777
ag1461
ag1950
ag372
aS'&#x1f619;'
p4778
aS'&#x263a;'
p4779
aS'&#x1f642;'
p4780
ag1448
ag1449
ag1829
ag2080
ag2082
ag2083
asVghana
p4781
(lp4782
g4710
asVok hand sign\u224a ok hand
p4783
(lp4784
g2423
asVwoman
p4785
(lp4786
g3409
aS'&#x1f469;'
p4787
ag4787
ag18
ag19
ag20
ag21
ag22
ag2368
ag2396
ag742
ag744
ag3380
aS'&#x1f469&#x200d&#x2764&#xfe0f&#x200d&#x1f48b&#x200d&#x1f469;'
p4788
ag4788
ag3381
aS'&#x1f469&#x200d&#x2764&#xfe0f&#x200d&#x1f469;'
p4789
ag4789
ag3134
ag3134
ag3382
ag3382
ag3135
ag3135
ag3136
ag3136
ag3383
ag3383
ag1862
ag1862
ag1863
ag1863
ag1864
ag1864
ag1865
ag1865
ag1866
ag1866
ag1674
ag1680
ag1681
ag1682
ag1684
ag669
asVparcel
p4790
(lp4791
g1099
asVsquared cool
p4792
(lp4793
g781
asVno entry
p4794
(lp4795
g967
asVhorror
p4796
(lp4797
g663
asVflag for brunei
p4798
(lp4799
g3168
asVfat
p4800
(lp4801
g1548
asVcyclone
p4802
(lp4803
g2197
ag2197
asVwater closet
p4804
(lp4805
g671
asVhatching
p4806
(lp4807
g2122
asVfall
p4808
(lp4809
g663
asVticket
p4810
(lp4811
g1745
ag1746
ag1746
asVramen
p4812
(lp4813
g1713
asVupside-down face
p4814
(lp4815
g2289
asVnorfolk
p4816
(lp4817
g829
asVcable
p4818
(lp4819
g943
ag944
asVcloud with lightning
p4820
(lp4821
g2195
asVmoldova
p4822
(lp4823
g4212
asVlarge
p4824
(lp4825
g1548
asVsand
p4826
(lp4827
g995
ag1738
ag450
asV-1
p4828
(lp4829
g2424
asVflag for western sahara
p4830
(lp4831
g4138
asVrice cracker
p4832
(lp4833
g1710
asVlocomotive
p4834
(lp4835
g2014
ag897
asVtriangular ruler
p4836
(lp4837
g1126
asVsamoa
p4838
(lp4839
S'&#x1f1e6&#x1f1f8;'
p4840
ag4352
asVbaby angel
p4841
(lp4842
g1454
ag88
ag89
ag90
ag91
ag92
asVten
p4843
(lp4844
g1842
ag2468
ag771
asVtea
p4845
(lp4846
g980
ag436
asVglowing star
p4847
(lp4848
g528
asVburger
p4849
(lp4850
g1707
asVconfound
p4851
(lp4852
g2680
asVribbon
p4853
(lp4854
g1669
ag617
ag617
ag619
asVabc
p4855
(lp4856
g711
asVclock
p4857
(lp4858
g1739
ag1740
ag1741
ag1742
ag1743
ag1996
ag1900
ag1317
ag2520
ag1166
ag2913
ag2017
ag2623
ag340
ag341
ag2042
ag2914
ag2043
ag2915
ag2044
ag2346
ag2045
ag2916
ag2046
ag2917
ag1842
ag2468
ag2047
ag2918
asVsun
p4859
(lp4860
g3976
ag1950
ag2150
ag888
ag2171
ag674
ag2172
ag2186
ag2188
ag2192
ag2193
ag2194
ag1383
ag951
asVbusts in silhouette
p4861
(lp4862
g1927
asVropeway
p4863
(lp4864
g944
asVopen mailbox with raised flag
p4865
(lp4866
g1102
asVracing
p4867
(lp4868
g2098
ag954
ag957
ag958
ag750
asVdizzy symbol\u224a dizzy
p4869
(lp4870
g1473
asVoutgoing
p4871
(lp4872
g1096
asVfull
p4873
(lp4874
g2178
ag2187
ag598
asVchristian
p4875
(lp4876
g3620
ag2597
ag4314
asVsquared ok
p4877
(lp4878
g788
asVflag for taiwan
p4879
(lp4880
g592
asVmonkey face
p4881
(lp4882
g2090
asVsurfer
p4883
(lp4884
g3388
ag3388
ag293
ag294
ag295
ag296
ag297
asVbeacon
p4885
(lp4886
g926
asVclassical building
p4887
(lp4888
g3613
asVblack medium square
p4889
(lp4890
g3053
asVbusstop
p4891
(lp4892
g910
asVholiday inn
p4893
(lp4894
g683
asVgrape
p4895
(lp4896
g1391
asVpage facing up
p4897
(lp4898
g1089
asVbelize
p4899
(lp4900
g2929
asVobserving
p4901
(lp4902
g1937
asVsearch
p4903
(lp4904
g726
ag727
asVtortoise
p4905
(lp4906
g3514
asVflag for antarctica
p4907
(lp4908
S'&#x1f1e6&#x1f1f6;'
p4909
asVsquared cjk unified ideograph-5408\u224a squared together ideograph
p4910
(lp4911
g795
asVperson frowning
p4912
(lp4913
g3406
ag103
ag104
ag105
ag106
ag107
asVtwisted rightwards arrows\u224a shuffle tracks button
p4914
(lp4915
g1280
asVairport
p4916
(lp4917
g3250
asVolder man
p4918
(lp4919
g23
ag24
ag25
ag26
ag27
asVhamster
p4920
(lp4921
g2112
asVgraph
p4922
(lp4923
g353
ag578
ag1119
ag1120
asVcamcorder
p4924
(lp4925
g2854
asVwhite up pointing backhand index
p4926
(lp4927
g183
ag184
ag185
ag186
ag187
asVflag for south georgia & south sandwich islands
p4928
(lp4929
g4147
asVhouse buildings
p4930
(lp4931
g3615
asVfamily
p4932
(lp4933
g1155
ag2319
ag2319
ag3134
ag3382
ag3135
ag3136
ag3383
ag3137
ag3384
ag3138
ag3139
ag3385
ag1862
ag1863
ag1864
ag1865
ag1866
asVafrica
p4934
(lp4935
g1905
asVflag for ireland
p4936
(lp4937
S'&#x1f1ee&#x1f1ea;'
p4938
asVfollower
p4939
(lp4940
g3933
asVautomated teller machine\u224a atm sign
p4941
(lp4942
g840
asVheavy large circle
p4943
(lp4944
g973
asVbeating heart
p4945
(lp4946
g2626
asVdango
p4947
(lp4948
g494
ag494
asVeye
p4949
(lp4950
g2007
ag1823
ag4777
ag1950
ag372
ag4778
ag2507
ag1043
ag3906
ag2080
ag2082
ag2084
ag3716
aS'&#x1f441;'
p4951
ag4951
ag4525
ag4525
ag1670
ag1671
ag1542
asV0
p4952
(lp4953
g764
asVcollision symbol\u224a collision
p4954
(lp4955
g1470
asVniger
p4956
(lp4957
S'&#x1f1f3&#x1f1ea;'
p4958
asVpoodle
p4959
(lp4960
g1852
ag1852
asVclock face four oclock\u224a four o\u2019clock
p4961
(lp4962
g340
asVflag for south sudan
p4963
(lp4964
g3285
asVpapua new guinea
p4965
(lp4966
g575
asVmorn
p4967
(lp4968
g720
asV6
p4969
(lp4970
g2043
ag2915
ag768
asVblack sun with rays\u224a sun
p4971
(lp4972
g2186
asVinjury
p4973
(lp4974
g721
asVheavy multiplication x
p4975
(lp4976
g3045
asVchestnut
p4977
(lp4978
g2158
ag2158
asVladybug
p4979
(lp4980
g331
ag332
asVisrael
p4981
(lp4982
S'&#x1f1ee&#x1f1f1;'
p4983
asVdiamond
p4984
(lp4985
g1687
ag1688
ag2892
ag3057
ag534
ag3058
ag535
ag1477
asVdoor
p4986
(lp4987
g946
ag946
asVflag
p4988
(lp4989
g614
ag739
ag1100
ag1101
ag1102
ag1103
ag750
ag1810
ag1811
ag959
ag502
ag2297
ag4756
ag876
ag3082
ag1007
ag365
aS'&#x1f1e6&#x1f1f1;'
p4990
ag1875
ag1306
ag4909
ag2875
ag4840
ag2538
ag4435
ag631
ag3961
ag3954
ag1239
ag3165
ag2941
ag3400
ag1054
ag3630
ag1944
ag2362
ag2246
ag4569
ag2268
ag3168
ag2722
ag1230
ag1930
ag3695
ag2228
ag4502
ag646
ag1204
ag2929
ag623
ag2725
ag651
ag1341
ag1253
ag3838
ag3217
ag2997
ag2316
aS'&#x1f1e8&#x1f1f2;'
p4991
ag589
ag2383
ag3079
ag3969
aS'&#x1f1e8&#x1f1fa;'
p4992
ag2535
ag1480
ag2629
ag359
aS'&#x1f1e8&#x1f1ff;'
p4993
aS'&#x1f1e9&#x1f1ea;'
p4994
ag3272
ag2482
ag2677
aS'&#x1f1e9&#x1f1f2;'
p4995
ag1163
aS'&#x1f1e9&#x1f1ff;'
p4996
ag2905
ag1175
ag2796
ag3474
ag4138
ag2333
ag4368
ag4236
aS'&#x1f1ea&#x1f1fa;'
p4997
aS'&#x1f1eb&#x1f1ee;'
p4998
ag583
ag2843
ag3234
ag3709
ag1539
aS'&#x1f1ec&#x1f1e6;'
p4999
ag3162
ag823
aS'&#x1f1ec&#x1f1ea;'
p5000
ag3117
ag411
ag4710
ag3391
aS'&#x1f1ec&#x1f1f1;'
p5001
ag1410
ag690
ag3282
aS'&#x1f1ec&#x1f1f6;'
p5002
ag3770
ag4147
ag1967
aS'&#x1f1ec&#x1f1fa;'
p5003
ag3936
ag1644
ag590
ag3303
ag2763
ag4286
ag1980
aS'&#x1f1ed&#x1f1fa;'
p5004
ag3425
ag3247
ag4938
ag4983
ag414
ag853
ag2388
ag2281
ag4668
ag1566
aS'&#x1f1ee&#x1f1f9;'
p5005
aS'&#x1f1ef&#x1f1ea;'
p5006
ag475
aS'&#x1f1ef&#x1f1f4;'
p5007
ag1157
aS'&#x1f1f0&#x1f1ea;'
p5008
ag3067
ag2828
ag4677
ag4126
ag3344
ag2577
ag2578
ag1195
ag405
ag2861
aS'&#x1f1f1&#x1f1e6;'
p5009
ag680
aS'&#x1f1f1&#x1f1e8;'
p5010
aS'&#x1f1f1&#x1f1ee;'
p5011
ag3503
ag4538
ag1660
ag1429
ag3853
aS'&#x1f1f1&#x1f1fb;'
p5012
ag4064
aS'&#x1f1f2&#x1f1e6;'
p5013
aS'&#x1f1f2&#x1f1e8;'
p5014
ag4212
ag1647
ag3118
ag3189
ag1458
ag2241
ag3037
ag660
ag4119
ag591
ag4067
ag4418
aS'&#x1f1f2&#x1f1f7;'
p5015
ag3949
aS'&#x1f1f2&#x1f1f9;'
p5016
ag2442
aS'&#x1f1f2&#x1f1fb;'
p5017
ag1419
ag2355
ag2589
aS'&#x1f1f2&#x1f1ff;'
p5018
ag1137
ag573
ag4958
ag829
aS'&#x1f1f3&#x1f1ec;'
p5019
aS'&#x1f1f3&#x1f1ee;'
p5020
ag1231
ag3459
aS'&#x1f1f3&#x1f1f5;'
p5021
ag3964
ag643
ag574
ag634
ag551
ag3222
ag3119
ag575
ag1403
ag4094
ag1608
ag2743
ag3786
aS'&#x1f1f5&#x1f1f7;'
p5022
ag1528
ag4179
ag2990
aS'&#x1f1f5&#x1f1fe;'
p5023
ag687
ag3325
ag4737
ag3108
ag3763
ag2849
ag4486
ag1569
ag1147
ag4455
aS'&#x1f1f8&#x1f1ea;'
p5024
ag4257
ag1422
ag2431
ag328
aS'&#x1f1f8&#x1f1f0;'
p5025
aS'&#x1f1f8&#x1f1f1;'
p5026
ag3773
aS'&#x1f1f8&#x1f1f3;'
p5027
ag3091
ag2734
ag3285
ag4233
aS'&#x1f1f8&#x1f1fb;'
p5028
ag4452
ag2574
ag595
aS'&#x1f1f9&#x1f1e6;'
p5029
ag3860
aS'&#x1f1f9&#x1f1e9;'
p5030
ag3120
aS'&#x1f1f9&#x1f1ec;'
p5031
ag4483
ag2307
ag3879
ag1878
aS'&#x1f1f9&#x1f1f2;'
p5032
aS'&#x1f1f9&#x1f1f3;'
p5033
aS'&#x1f1f9&#x1f1f4;'
p5034
ag4133
ag3201
aS'&#x1f1f9&#x1f1fb;'
p5035
ag592
ag1035
ag3591
aS'&#x1f1fa&#x1f1ec;'
p5036
ag3847
ag3848
ag3295
ag4700
ag1920
ag1004
ag1362
ag1443
ag2715
ag2908
ag4443
ag702
ag4352
aS'&#x1f1fd&#x1f1f0;'
p5037
aS'&#x1f1fe&#x1f1ea;'
p5038
ag1376
ag4633
aS'&#x1f1ff&#x1f1f2;'
p5039
aS'&#x1f1ff&#x1f1fc;'
p5040
asVhammer and pick
p5041
(lp5042
g1516
asVstick
p5043
(lp5044
g1715
ag494
ag1756
ag1757
asVkaraoke
p5045
(lp5046
g1775
asVcurrency exchange
p5047
(lp5048
g867
asVkeycap digit nine
p5049
(lp5050
g770
asVflag for laos
p5051
(lp5052
g5009
asVflag for paraguay
p5053
(lp5054
g5023
asVprimate
p5055
(lp5056
g1572
asVmantelpiece clock
p5057
(lp5058
g1743
asVlarge blue circle\u224a blue circle
p5059
(lp5060
g536
asVjack-o-lantern
p5061
(lp5062
g663
ag420
asVflag for ethiopia
p5063
(lp5064
g4236
asVshinto shrine
p5065
(lp5066
g2836
asV4:00
p5067
(lp5068
g340
asVnine
p5069
(lp5070
g2046
ag2917
ag770
asVheart decoration
p5071
(lp5072
g3290
asVv
p5073
(lp5074
g1256
asVmale
p5075
(lp5076
g514
asVhong kong
p5077
(lp5078
g590
asVsleuth
p5079
(lp5080
g3142
asVnautilus
p5081
(lp5082
g995
asVhamburger
p5083
(lp5084
g1707
ag1707
asVhigh voltage sign\u224a high voltage
p5085
(lp5086
g368
asVtelephone receiver
p5087
(lp5088
g1784
asVnew caledonia
p5089
(lp5090
g573
asVautumn
p5091
(lp5092
g663
asVcollision
p5093
(lp5094
g1470
asVfishing pole and fish\u224a fishing pole
p5095
(lp5096
g1759
asVnumbers
p5097
(lp5098
g775
asVkenya
p5099
(lp5100
g5008
asVstation
p5101
(lp5102
g3025
ag903
ag903
ag923
asVairplane
p5103
(lp5104
g3250
ag937
ag937
ag938
ag939
ag940
asVdress
p5105
(lp5106
g1672
ag1672
asVinformation
p5107
(lp5108
g2265
ag2326
ag783
asVflag for norway
p5109
(lp5110
g3459
asVdog face
p5111
(lp5112
g1850
asVwhite down pointing backhand index
p5113
(lp5114
g193
ag194
ag195
ag196
ag197
asVspeedboat
p5115
(lp5116
g932
ag932
asVclock face seven-thirty\u224a seven-thirty
p5117
(lp5118
g2346
asVumbrella on ground
p5119
(lp5120
g951
asVfile folder
p5121
(lp5122
g1111
asVlovestruck
p5123
(lp5124
g2493
asVflushed face
p5125
(lp5126
g2883
asVclink
p5127
(lp5128
g1731
asVgoat
p5129
(lp5130
g1246
ag1246
ag1247
asVcreature
p5131
(lp5132
g491
ag492
ag1450
ag1451
ag1452
asVplant
p5133
(lp5134
g1691
ag2146
ag2147
ag2148
ag2149
ag2150
ag2151
ag2152
ag2153
ag1555
ag730
ag1556
ag387
ag1938
ag586
ag2154
ag339
ag2155
ag2156
ag1058
ag1391
ag1693
ag1694
ag1695
ag1696
ag1697
ag1698
ag1699
ag1047
ag1700
ag1701
ag1702
ag1703
ag1704
ag1705
ag1706
ag979
ag2157
ag2158
ag498
asVplane
p5135
(lp5136
g3250
asVadventure
p5137
(lp5138
g439
asVsyria
p5139
(lp5140
g2574
asVbear face
p5141
(lp5142
g2116
asVblack right-pointing double triangle with vertical bar\u224a next track button
p5143
(lp5144
g1285
asVflutter
p5145
(lp5146
g1058
asVa
p5147
(lp5148
g777
asVface with tears of joy
p5149
(lp5150
g3009
asVdeciduous tree
p5151
(lp5152
g730
asVup down arrow\u224a up-down arrow
p5153
(lp5154
g1269
asVpaw
p5155
(lp5156
g2118
asVpucker
p5157
(lp5158
g4707
asVdeparture
p5159
(lp5160
g939
asVvolleyball
p5161
(lp5162
g1749
ag1749
asVdragon
p5163
(lp5164
g2131
ag2132
ag2132
asVwrench
p5165
(lp5166
g1517
ag1518
ag1518
asVo\u2019clock
p5167
(lp5168
g1996
ag1317
ag1166
ag2017
ag340
ag2042
ag2043
ag2044
ag2045
ag2046
ag1842
ag2047
asVsquared cjk unified ideograph-6307\u224a squared finger ideograph
p5169
(lp5170
g507
asVegg
p5171
(lp5172
g3409
ag554
asVplaying
p5173
(lp5174
g1413
ag500
asVminor outlying
p5175
(lp5176
g3847
asVislas
p5177
(lp5178
g2843
asVmexican
p5179
(lp5180
g2161
ag2162
asVhelp
p5181
(lp5182
g2326
ag790
asVflag for suriname
p5183
(lp5184
g2734
asVflag for caribbean netherlands
p5185
(lp5186
g1230
asVsoon
p5187
(lp5188
g1279
asVnorth korea
p5189
(lp5190
g2577
asVpaper
p5191
(lp5192
g1088
ag1795
ag1796
asVmakeup
p5193
(lp5194
g1686
asVleft
p5195
(lp5196
g1287
asVhelo
p5197
(lp5198
g2703
asVislam
p5199
(lp5200
g3621
ag1590
ag3147
asV5:30
p5201
(lp5202
g2914
asVcall
p5203
(lp5204
g1260
asVpray
p5205
(lp5206
g1155
ag1923
asVclosed mailbox with lowered flag
p5207
(lp5208
g1101
asVresort
p5209
(lp5210
g930
asVspeech
p5211
(lp5212
g4525
ag1474
ag2934
asVargentina
p5213
(lp5214
g2875
asVsoccer
p5215
(lp5216
g1440
asVcongo-kinshasa
p5217
(lp5218
g651
asVdolls
p5219
(lp5220
g1155
asVevening
p5221
(lp5222
g654
ag674
asVfood
p5223
(lp5224
g2846
ag1461
ag1391
ag1693
ag1694
ag1695
ag1696
ag1697
ag1698
ag1699
ag1047
ag1700
ag1701
ag1702
ag1703
ag1704
ag1705
ag979
ag1227
ag2159
ag1236
ag1298
ag1707
ag1559
ag1001
ag2160
ag2161
ag2162
ag554
ag1708
ag2163
ag1709
ag1710
ag493
ag1711
ag1712
ag1713
ag1714
ag1212
ag1715
ag1716
ag708
ag1717
ag494
ag1718
ag1719
ag1720
ag1721
ag1722
ag608
ag1723
ag1724
ag1725
ag1397
ag1726
ag860
ag430
ag555
asVflag for curaao
p5225
(lp5226
g1480
asVspeaker with one sound wave\u224a speaker on
p5227
(lp5228
g1766
asVcanada
p5229
(lp5230
g623
asVraised fist
p5231
(lp5232
g2425
ag238
ag239
ag240
ag241
ag242
asVtrolleybus
p5233
(lp5234
g898
ag904
ag907
ag362
ag362
asVflag for slovenia
p5235
(lp5236
g2431
asVnegative squared latin capital letter b\u224a b button
p5237
(lp5238
g779
asVtable tennis paddle and ball\u224a ping pong
p5239
(lp5240
g1758
asVnamibia
p5241
(lp5242
g1137
asVlast quarter moon with face
p5243
(lp5244
g2184
asVfriendship
p5245
(lp5246
g524
asVbutton
p5247
(lp5248
g1073
ag1290
ag325
ag1893
ag3060
ag3061
asVlantern
p5249
(lp5250
g420
ag501
asVbarthlemy
p5251
(lp5252
g4569
asVengland
p5253
(lp5254
g3162
asVput litter in its place symbol\u224a litter in bin sign
p5255
(lp5256
g873
asVweight
p5257
(lp5258
g1325
ag1523
asVhouse
p5259
(lp5260
g356
ag3615
ag3617
ag3196
ag3094
asVfish
p5261
(lp5262
g2135
ag2135
ag2136
ag2137
ag1717
ag1759
ag2783
asVexasperated
p5263
(lp5264
V&#x1f630;
p5265
asVidea
p5266
(lp5267
g1365
ag1476
asVoil
p5268
(lp5269
g1815
asVextraterrestrial alien\u224a alien
p5270
(lp5271
g1451
asVfist
p5272
(lp5273
g2425
ag1038
asVendearment
p5274
(lp5275
g331
asVmens symbol\u224a men\u2019s room
p5276
(lp5277
g668
asVflower
p5278
(lp5279
g859
ag1691
ag2146
ag1692
ag2148
ag2149
ag2150
ag2151
ag2152
ag500
asVlipstick
p5280
(lp5281
g1686
ag1686
asVnepal
p5282
(lp5283
g5021
asVjolly
p5284
(lp5285
g885
asVrabbit face
p5286
(lp5287
g2113
asVfountain
p5288
(lp5289
g1732
ag1732
ag1107
asV7
p5290
(lp5291
g2044
ag2346
ag769
asVprint
p5292
(lp5293
g3312
ag2118
asVmoney-mouth face
p5294
(lp5295
g1827
asVhighway
p5296
(lp5297
g924
asVgrimace
p5298
(lp5299
g3488
asVflag for christmas island
p5300
(lp5301
g2629
asVdung
p5302
(lp5303
g1466
asVtable tennis
p5304
(lp5305
g1758
asVcookie
p5306
(lp5307
g1722
ag1722
asVdisneyland
p5308
(lp5309
g396
asVask
p5310
(lp5311
g1923
asVteach
p5312
(lp5313
g4005
asVgame die
p5314
(lp5315
g1762
asVface without mouth
p5316
(lp5317
g1824
asVfinland
p5318
(lp5319
g4998
asVbell with cancellation stroke\u224a bell with slash
p5320
(lp5321
g1769
asVelectric torch\u224a flashlight
p5322
(lp5323
g1513
asVflag for haiti
p5324
(lp5325
g1980
asVamericas
p5326
(lp5327
g1906
asVcheering
p5328
(lp5329
g1767
asVamerican
p5330
(lp5331
g1750
ag4840
ag2715
asVflag for somalia
p5332
(lp5333
g3091
asVheartbeat
p5334
(lp5335
g2626
asVcastle
p5336
(lp5337
g396
ag496
ag2399
asVblush
p5338
(lp5339
V&#x1f633;
p5340
ag4777
asVheavy dollar sign
p5341
(lp5342
g868
asVguam
p5343
(lp5344
g5003
asVvalentine
p5345
(lp5346
g1669
asVfeet
p5347
(lp5348
g2118
asVsympathy
p5349
(lp5350
g1825
asVsailor
p5351
(lp5352
g2341
asVcolombia
p5353
(lp5354
g2383
asVchanging
p5355
(lp5356
g962
asVflag for jersey
p5357
(lp5358
g5006
asVwomans hat\u224a woman\u2019s hat
p5359
(lp5360
g1684
asVmaple
p5361
(lp5362
g2155
asVhorse
p5363
(lp5364
g3700
ag2097
ag2098
ag2098
ag3032
ag954
asVjew
p5365
(lp5366
g3622
ag4671
asVjet
p5367
(lp5368
g3250
asVblossom
p5369
(lp5370
g2146
ag2151
ag2151
asVautomobile
p5371
(lp5372
g918
ag918
ag919
asVspock
p5373
(lp5374
g2067
asVgibraltar
p5375
(lp5376
g3391
asVsaint
p5377
(lp5378
g4569
ag3344
ag5010
ag3118
ag2743
ag1422
ag1004
asVhorse face
p5379
(lp5380
g2097
asVnigeria
p5381
(lp5382
g5019
asVmoat
p5383
(lp5384
g396
asVbanana
p5385
(lp5386
g1572
ag1697
ag1697
asVstore
p5387
(lp5388
g2801
ag459
ag3619
asVbumble
p5389
(lp5390
g859
asVcow face
p5391
(lp5392
g2100
asVsmall orange diamond
p5393
(lp5394
g3058
asVrelieved
p5395
(lp5396
g1140
ag677
ag4470
asVhotel
p5397
(lp5398
g683
ag1677
ag3618
ag3618
ag3180
ag1736
ag349
ag350
ag1737
asVpark
p5399
(lp5400
g2020
ag2168
asVemoji modifier fitzpatrick type-3\u224a skin type-3
p5401
(lp5402
g2254
asVflag for bouvet island
p5403
(lp5404
g4502
asVflag for zambia
p5405
(lp5406
g5039
asVoptical
p5407
(lp5408
g1075
ag1077
ag1078
asVtyphoon
p5409
(lp5410
g2197
asVtheater
p5411
(lp5412
g1734
asVfrowning face with open mouth
p5413
(lp5414
g1828
asVking
p5415
(lp5416
g396
ag1683
asVtwister
p5417
(lp5418
g2197
asVtanabata
p5419
(lp5420
g1554
asVdouble
p5421
(lp5422
g3048
ag1284
ag1288
ag1291
ag1292
ag1621
asVflag for st. pierre & miquelon
p5423
(lp5424
g2743
asVbride
p5425
(lp5426
g1975
asVemirates
p5427
(lp5428
g876
asVbarthelemy
p5429
(lp5430
g4569
asVpile of poo
p5431
(lp5432
g1466
asV8:30
p5433
(lp5434
g2916
asVflag for china
p5435
(lp5436
g589
asVflag for northern mariana islands
p5437
(lp5438
g4067
asVflag for maldives
p5439
(lp5440
g5017
asVheavy exclamation mark symbol\u224a exclamation mark
p5441
(lp5442
g760
asVcrossed swords
p5443
(lp5444
g1806
asVmacau
p5445
(lp5446
g591
asVbow and arrow
p5447
(lp5448
g1261
asVcaicos
p5449
(lp5450
g3860
asVchipmunk
p5451
(lp5452
g2115
ag2115
asVreunion
p5453
(lp5454
g3325
asVpedestrian
p5455
(lp5456
g1545
ag1545
ag148
ag149
ag150
ag151
ag152
ag966
ag972
asVantarctica
p5457
(lp5458
g4909
asV1:00
p5459
(lp5460
g1317
asVblond
p5461
(lp5462
g4055
asVflag for trinidad & tobago
p5463
(lp5464
g3201
asVmacao
p5465
(lp5466
g591
asVdepartment store
p5467
(lp5468
g3619
asVkoala
p5469
(lp5470
g2117
ag2117
asVzero
p5471
(lp5472
g764
asVprncipe
p5473
(lp5474
g4233
asVflag for united states
p5475
(lp5476
g3848
asVorange book
p5477
(lp5478
g1083
asVopen lock
p5479
(lp5480
g1801
asVcouch
p5481
(lp5482
g1737
asVeuropean union
p5483
(lp5484
g4997
asVknobs
p5485
(lp5486
g1774
asVcameroon
p5487
(lp5488
g4991
asVplay
p5489
(lp5490
g1283
ag1286
asVneedle
p5491
(lp5492
g1355
asVelectric
p5493
(lp5494
g898
ag368
ag369
ag1476
ag1513
asVeruption
p5495
(lp5496
g1295
asVchart
p5497
(lp5498
g353
ag578
ag1119
ag1120
asVvirus
p5499
(lp5500
V&#x1f41b;
p5501
asVflag for diego garcia
p5502
(lp5503
g3272
asVsleeping accommodation\u224a person in bed
p5504
(lp5505
g349
asVtonga
p5506
(lp5507
g5034
asVmobile
p5508
(lp5509
g1783
ag1260
ag1817
ag1818
ag1819
ag1820
asVcover
p5510
(lp5511
g1080
asVnew moon with face\u224a new moon face
p5512
(lp5513
g2182
asVliechtenstein
p5514
(lp5515
g5011
asVpart
p5516
(lp5517
g3049
asVbullseye
p5518
(lp5519
g1542
asVjordan
p5520
(lp5521
g5007
asVclock face five oclock\u224a five o\u2019clock
p5522
(lp5523
g2042
asVclapping hands sign\u224a clapping hands
p5524
(lp5525
g2427
asVtaxi
p5526
(lp5527
g916
ag916
ag917
asVminidisk
p5528
(lp5529
g1075
asVgolf
p5530
(lp5531
g739
ag4014
asVstunned
p5532
(lp5533
g1336
asVkosovo
p5534
(lp5535
g5037
asVminidisc
p5536
(lp5537
g1075
asVflag for gambia
p5538
(lp5539
g1410
asVhugging
p5540
(lp5541
g3719
asVmiquelon
p5542
(lp5543
g2743
asVcrayon
p5544
(lp5545
g1109
asVright anger bubble
p5546
(lp5547
g3212
asVnotebook with decorative cover
p5548
(lp5549
g1080
asVcouple with heart
p5550
(lp5551
g3179
asVcopyright
p5552
(lp5553
g761
asVmusic
p5554
(lp5555
g1057
ag1770
ag1771
ag1772
ag1773
ag894
ag1774
ag1778
ag1779
ag1780
ag1781
ag1782
asVjustice
p5556
(lp5557
g1523
ag2338
asVnervous
p5558
(lp5559
g1021
asVfax machine
p5560
(lp5561
g856
asVunhappy
p5562
(lp5563
V&#x1f612;
p5564
ag4337
asVflag for armenia
p5565
(lp5566
g1875
asVwhite smiling face\u224a smiling face
p5567
(lp5568
g4779
asVmoney
p5569
(lp5570
g1827
ag1091
ag863
ag864
ag865
ag866
ag1092
ag640
ag353
ag867
ag868
asVblack right-pointing triangle\u224a play button
p5571
(lp5572
g1283
asV8
p5573
(lp5574
g2045
ag2916
ag1753
ag714
asVcircle
p5575
(lp5576
g973
ag4174
ag785
ag3062
ag3063
ag3064
ag536
asVsmiling face with open mouth and cold sweat
p5577
(lp5578
g3669
asVgreen book
p5579
(lp5580
g1048
asVpouting face
p5581
(lp5582
g1983
asVhit
p5583
(lp5584
g1542
asVpulsating
p5585
(lp5586
g2626
asVzambia
p5587
(lp5588
g5039
asVsunny
p5589
(lp5590
g1949
ag2186
asVb
p5591
(lp5592
g779
asVwhite heavy check mark
p5593
(lp5594
g2814
asVbanner
p5595
(lp5596
g497
asVmerchandise
p5597
(lp5598
g2801
asVpassport control
p5599
(lp5600
g699
asVblowing kiss
p5601
(lp5602
V&#x1f618;
p5603
asVunion jack
p5604
(lp5605
g3162
asVheart with arrow
p5606
(lp5607
g1259
asVradioactive sign\u224a radioactive
p5608
(lp5609
g2754
asVcry
p5610
(lp5611
g720
ag3010
ag2674
ag2086
asVlow brightness symbol\u224a dim button
p5612
(lp5613
g1242
asVcroatia
p5614
(lp5615
g4286
asVactivity
p5616
(lp5617
g605
ag440
ag1487
ag607
ag433
ag3032
ag2403
ag2215
ag3623
ag1734
ag976
ag1735
ag2190
ag420
ag609
ag610
ag611
ag612
ag613
ag427
ag497
ag498
ag499
ag614
ag615
ag616
ag1746
ag1542
ag500
ag1770
ag1771
ag1772
ag1775
ag1776
ag1778
ag1779
ag1780
ag1781
ag1782
ag1787
ag1134
ag502
ag1812
ag1816
asVswitzerland
p5618
(lp5619
g3838
asVx
p5620
(lp5621
g3045
ag803
asVvincent
p5622
(lp5623
g1004
asVflag for togo
p5624
(lp5625
g5031
asVinput symbol for symbols\u224a input symbols
p5626
(lp5627
g776
asVset
p5628
(lp5629
g1126
asVart
p5630
(lp5631
g1734
ag1069
ag976
asVflag for palau
p5632
(lp5633
g2990
asVexclamation question mark
p5634
(lp5635
g756
asVflag for malta
p5636
(lp5637
g5016
asVcircus tent
p5638
(lp5639
g3623
asVflag for mongolia
p5640
(lp5641
g4119
asVsex
p5642
(lp5643
g1958
asVlion
p5644
(lp5645
g375
ag2781
asVom symbol\u224a om
p5646
(lp5647
g4493
asVsea
p5648
(lp5649
g930
asVexplosion
p5650
(lp5651
g1365
asVhibiscus
p5652
(lp5653
g2149
ag2149
asVspirits
p5654
(lp5655
g1057
asVmovie
p5656
(lp5657
g2854
ag1787
ag1788
ag1789
ag1134
ag1816
asVexchange
p5658
(lp5659
g867
asVplease
p5660
(lp5661
g1923
asVcloud with snow
p5662
(lp5663
g1628
asVwon
p5664
(lp5665
g469
asVflame
p5666
(lp5667
g1511
asVmovie camera
p5668
(lp5669
g1787
asVeurope
p5670
(lp5671
g1905
asVmuslim
p5672
(lp5673
g3621
ag1590
ag3147
asVmoyai
p5674
(lp5675
g601
asVmailbox
p5676
(lp5677
g1100
ag1101
ag1102
ag1103
ag1104
asVface with cold sweat
p5678
(lp5679
S'&#x1f613;'
p5680
asVearth globe europe-africa\u224a globe showing europe-africa
p5681
(lp5682
g1905
asVzipper
p5683
(lp5684
g1826
asVclock face four-thirty\u224a four-thirty
p5685
(lp5686
g341
asVflag for san marino
p5687
(lp5688
g3773
asVecuador
p5689
(lp5690
g1175
asVreverse
p5691
(lp5692
g1287
asVairplane arriving\u224a airplane arrival
p5693
(lp5694
g940
asVf\u016brin
p5695
(lp5696
g1057
asVotsukimi
p5697
(lp5698
g1937
asVmcdonald
p5699
(lp5700
g3303
asVblack left-pointing double triangle\u224a fast reverse button
p5701
(lp5702
g1288
asVeggplant
p5703
(lp5704
g1705
asVbuzz
p5705
(lp5706
g859
asVshortcake
p5707
(lp5708
g1723
ag1723
asV9:00
p5709
(lp5710
g2046
asVloaf
p5711
(lp5712
g1227
asVcooked rice
p5713
(lp5714
g1711
asVpoint
p5715
(lp5716
g2063
ag2064
ag1160
ag2065
ag1618
asVbattery
p5717
(lp5718
g1785
ag1785
asVsweet
p5719
(lp5720
g1212
ag494
ag1718
ag1719
ag1720
ag1721
ag1722
ag608
ag1723
ag1724
ag1725
ag1397
ag1726
ag860
asVwastebasket
p5721
(lp5722
g1130
ag1130
asVwhite square button
p5723
(lp5724
g3061
asVdancer
p5725
(lp5726
g2396
aS'&#x1f483;'
p5727
ag5727
ag158
ag159
ag160
ag161
ag162
asVflag for malawi
p5728
(lp5729
g1419
asVflag for tonga
p5730
(lp5731
g5034
asVchurch
p5732
(lp5733
g3620
ag3620
asVbridge at night
p5734
(lp5735
g1583
asVdevil
p5736
(lp5737
g1178
asVmiddle finger
p5738
(lp5739
g2066
asVflag for uganda
p5740
(lp5741
g5036
asVunderage
p5742
(lp5743
g772
asVtop hat
p5744
(lp5745
g1487
asVpc
p5746
(lp5747
g1071
asVsecret
p5748
(lp5749
g798
asVflag for chad
p5750
(lp5751
g5030
asVireland
p5752
(lp5753
g3162
ag4938
asVlaos
p5754
(lp5755
g5009
asVflag for south korea
p5756
(lp5757
g2578
asVflag for peru
p5758
(lp5759
g3222
asVflag for burundi
p5760
(lp5761
g2362
asVsnowman without snow
p5762
(lp5763
g1631
asVhamster face
p5764
(lp5765
g2112
asValgeria
p5766
(lp5767
g4996
asVfire
p5768
(lp5769
g913
ag1511
ag1511
asVgas
p5770
(lp5771
g604
ag923
asVtogo
p5772
(lp5773
g5031
asVflag for new zealand
p5774
(lp5775
g574
asVflag for jordan
p5776
(lp5777
g5007
asVgeorgia
p5778
(lp5779
g5000
ag4147
asVflag for central african republic
p5780
(lp5781
g1341
asVflag for bahamas
p5782
(lp5783
g3695
asVbill
p5784
(lp5785
g863
ag864
ag865
ag866
ag1092
asVstraight ruler
p5786
(lp5787
g717
asVbikini
p5788
(lp5789
g1673
ag1673
asVerror
p5790
(lp5791
g5501
asVkissing
p5792
(lp5793
g4707
asVsmiling face with smiling eyes
p5794
(lp5795
g4777
asVloop
p5796
(lp5797
g3047
ag3048
asVpack
p5798
(lp5799
g439
asVpound
p5800
(lp5801
g866
ag763
asVfleur-de-lis
p5802
(lp5803
g4672
ag4672
asVportugal
p5804
(lp5805
g4179
asVdemon
p5806
(lp5807
g1178
asVup-pointing red triangle\u224a red triangle pointed up
p5808
(lp5809
g3059
asVshamrock
p5810
(lp5811
g2154
ag2154
asVgreenland
p5812
(lp5813
g5001
asVitaly
p5814
(lp5815
g5005
asVmeridians
p5816
(lp5817
g1907
asV8:00
p5818
(lp5819
g2045
asVclock face nine-thirty\u224a nine-thirty
p5820
(lp5821
g2917
asVeyewear
p5822
(lp5823
g1950
ag1670
ag1671
asVewe
p5824
(lp5825
g3933
ag1369
asVdesert island
p5826
(lp5827
g2167
asVtimor-leste
p5828
(lp5829
g1878
asVcat face with tears of joy
p5830
(lp5831
g2081
asV9
p5832
(lp5833
g2046
ag2917
ag770
asVhoneybee
p5834
(lp5835
g2144
ag2144
asVsmiling cat face with heart-shaped eyes
p5836
(lp5837
g2082
asVflag for afghanistan
p5838
(lp5839
g3082
asVno smoking symbol\u224a no smoking
p5840
(lp5841
g969
asVchart with upwards trend\u224a chart increasing
p5842
(lp5843
g578
asVsnail
p5844
(lp5845
g1961
ag2141
ag2141
asVmountain
p5846
(lp5847
V&#x1f304;
p5848
ag1627
ag3612
ag3612
ag1295
ag2164
ag888
ag906
ag943
ag383
asVtuvalu
p5849
(lp5850
g5035
asVleopard
p5851
(lp5852
g2096
ag2096
asVcosta rica
p5853
(lp5854
g3969
asVviewing
p5855
(lp5856
g1937
asVolder woman
p5857
(lp5858
g28
ag29
ag30
ag31
ag32
asVcityscape
p5859
(lp5860
g3616
asVflag for malaysia
p5861
(lp5862
g2589
asVeuro
p5863
(lp5864
g865
asVflag for italy
p5865
(lp5866
g5005
asVnoodle
p5867
(lp5868
g1713
asVsquared cl
p5869
(lp5870
g780
asVflock
p5871
(lp5872
g3933
asVel salvador
p5873
(lp5874
g5028
asVpoland
p5875
(lp5876
g1608
asVhorse racing
p5877
(lp5878
g954
asVmonaco
p5879
(lp5880
g5014
asVflag for mexico
p5881
(lp5882
g2355
asVperson
p5883
(lp5884
g4398
ag2007
ag3009
ag1322
ag1823
ag3669
ag1141
ag1042
ag4777
ag1461
ag1950
ag372
ag3289
ag1144
ag4778
ag2507
ag4779
ag4780
ag3719
ag1448
ag1964
ag3684
ag2050
ag1051
ag1824
ag2878
ag1890
ag1152
ag677
ag1825
ag1826
ag1336
ag346
ag486
ag347
ag4470
aS'&#x1f61b;'
p5885
ag1043
ag3906
ag4337
ag5680
ag1605
ag3300
ag2289
ag1827
ag2708
ag1354
ag2238
ag721
ag4365
ag2407
ag3208
ag3403
ag3550
ag469
ag3010
ag2674
ag1828
aS'&#x1f627;'
p5886
ag3074
ag487
ag3488
ag531
ag1872
ag2883
ag1494
ag1983
ag3211
ag1449
ag1178
ag491
ag492
ag2294
ag1654
ag1450
ag1451
ag1452
ag3582
ag3133
ag1663
ag3378
ag4787
ag2571
ag2368
aS'&#x1f476;'
p5887
ag4055
ag2220
ag2286
ag2391
ag417
ag539
ag1453
ag3231
ag3142
ag605
ag1975
ag1454
ag1064
ag1013
ag3406
ag1984
ag2419
ag2420
ag2326
ag2421
ag399
ag606
ag1923
ag834
ag1926
ag1927
ag1545
ag1593
ag2396
ag5727
ag3379
ag742
ag743
ag744
aS'&#x1f48f;'
p5888
ag3179
ag2319
ag1467
ag2063
ag2064
ag1160
ag2065
ag2066
ag1618
ag1256
ag2067
ag2068
ag2069
ag2422
ag2423
ag1416
ag2424
ag2425
ag1038
ag2426
ag2427
ag1312
ag2428
ag518
aS'&#x1f442;'
p5889
ag4409
ag3312
ag3716
ag4951
aS'&#x1f445;'
p5890
ag1830
ag1657
ag1259
ag2023
ag2626
ag521
ag2225
ag1348
ag1021
ag532
ag1046
ag335
ag2608
ag1669
ag879
ag3290
ag1833
ag348
ag1468
ag1470
ag1471
ag1472
ag1473
ag1474
ag423
ag1670
ag1624
ag1027
ag390
ag1672
ag1183
ag1673
ag1674
ag1675
ag1676
ag747
ag1678
ag1679
ag1680
ag1681
ag1682
ag1683
ag1684
ag1487
ag1685
ag1686
ag1687
ag1688
ag1386
ag1475
ag617
ag4014
ag1028
ag953
ag1632
ag3388
ag954
ag955
ag956
ag1325
ag382
ag383
ag958
ag1010
asVzimbabwe
p5891
(lp5892
g5040
asVflags
p5893
(lp5894
g490
asVmassage
p5895
(lp5896
g1064
asVtraffic
p5897
(lp5898
g837
ag927
ag966
ag967
asVchemistry
p5899
(lp5900
g1522
asVhotdog
p5901
(lp5902
g2160
asVpollen
p5903
(lp5904
g859
asVnext scene
p5905
(lp5906
g1285
asVbaby chick
p5907
(lp5908
g2123
asVeyeglasses
p5909
(lp5910
g1670
asVbearer
p5911
(lp5912
g843
ag2202
ag844
asVscotland
p5913
(lp5914
g3162
asVroasted
p5915
(lp5916
g1212
asVsleepy face
p5917
(lp5918
g346
asVprince
p5919
(lp5920
g396
asVevergreen tree\u224a evergreen
p5921
(lp5922
g1555
asVsandal
p5923
(lp5924
g1681
asVbellhop
p5925
(lp5926
g1736
asVcup
p5927
(lp5928
g436
ag1728
asVlady
p5929
(lp5930
g331
asVadmission
p5931
(lp5932
g1745
ag1746
asVdanger
p5933
(lp5934
g368
asVback with leftwards arrow above\u224a back arrow
p5935
(lp5936
g1277
asVandorra
p5937
(lp5938
g4756
asVincoming envelope
p5939
(lp5940
g1095
asVcherries
p5941
(lp5942
g1702
asVcub
p5943
(lp5944
g524
asVflag for pakistan
p5945
(lp5946
g4094
asVsnap
p5947
(lp5948
g3514
asVinput
p5949
(lp5950
g773
ag774
ag775
ag776
ag711
asVexcited
p5951
(lp5952
g1348
ag1021
asVsurprised
p5953
(lp5954
g1336
ag2085
asVcard file box
p5955
(lp5956
g1128
asVaustralia
p5957
(lp5958
g1897
ag4435
asVcouple
p5959
(lp5960
g742
ag743
ag744
ag5888
ag3179
ag3381
ag696
ag4789
asVgame
p5961
(lp5962
g1735
ag1749
ag1753
ag1754
ag1755
ag1756
ag1757
ag1758
ag1400
ag1542
ag1760
ag1761
ag1762
ag1615
ag2461
ag2892
ag2592
ag1413
ag1763
ag500
asVemoji modifier fitzpatrick type-1-2\u224a skin type-1-2
p5963
(lp5964
g2253
asVsnore
p5965
(lp5966
g345
asVflag for kenya
p5967
(lp5968
g5008
asVtristan da cunha
p5969
(lp5970
g5029
asVwings
p5971
(lp5972
g1092
asVglittery
p5973
(lp5974
g528
asVmultiple musical notes\u224a musical notes
p5975
(lp5976
g1772
asVkyrgyzstan
p5977
(lp5978
g3067
asVsemi
p5979
(lp5980
g705
asVpuck
p5981
(lp5982
g1757
asVflag for turkey
p5983
(lp5984
g4133
asVoncoming
p5985
(lp5986
g909
ag915
ag917
ag919
asVsnowboard
p5987
(lp5988
g1632
asVscape
p5989
(lp5990
g566
asVsleigh
p5991
(lp5992
g885
asVbamboo
p5993
(lp5994
g571
ag498
asVmahjong
p5995
(lp5996
g1763
asVsmiling face with halo
p5997
(lp5998
g1448
asVclosed lock with key
p5999
(lp6000
g657
asVivory coast
p6001
(lp6002
g3217
asVback
p6003
(lp6004
g1277
asVphone
p6005
(lp6006
g1783
ag1260
ag984
ag1784
ag1817
ag1818
ag1819
ag1820
asVlips
p6007
(lp6008
g4707
ag1830
ag1657
asVescargot
p6009
(lp6010
g1961
asVcandy
p6011
(lp6012
g1725
ag1725
ag1397
asVornaments
p6013
(lp6014
g378
asVcd
p6015
(lp6016
g1077
ag1078
asVcandle
p6017
(lp6018
g1794
ag1794
asVnicaragua
p6019
(lp6020
g5020
asVflag for tunisia
p6021
(lp6022
g5033
asVflag for germany
p6023
(lp6024
g4994
asVclock face eight oclock\u224a eight o\u2019clock
p6025
(lp6026
g2045
asVsun with face
p6027
(lp6028
g2188
asVopen book
p6029
(lp6030
g1082
asVpet
p6031
(lp6032
g1850
ag1851
ag987
ag2093
ag2112
ag2113
ag2114
asVspouting
p6033
(lp6034
g2133
asVnext track
p6035
(lp6036
g1285
asVreligion
p6037
(lp6038
g1685
ag3620
ag3621
ag3622
ag2836
ag1590
ag1941
ag4493
ag4671
ag2404
ag1857
ag2597
ag4314
ag3147
ag810
asVpen
p6039
(lp6040
g1106
ag1107
ag1016
ag1802
asVradio button
p6041
(lp6042
g1893
asVtemple
p6043
(lp6044
g3622
asVlaughing
p6045
(lp6046
V&#x1f606;
p6047
asVzzz
p6048
(lp6049
g347
ag348
asVufo
p6050
(lp6051
g1451
ag1452
asVmartin
p6052
(lp6053
g3118
asVflag for uruguay
p6054
(lp6055
g3295
asVoncoming bus
p6056
(lp6057
g909
asVfuneral urn
p6058
(lp6059
g1814
asVstew
p6060
(lp6061
g1708
asVsanta
p6062
(lp6063
g378
ag605
asVthumbs down sign\u224a thumbs down
p6064
(lp6065
g2424
asVupwards black arrow\u224a up arrow
p6066
(lp6067
g1262
asVweary cat face
p6068
(lp6069
g2085
asVflag for cambodia
p6070
(lp6071
g2828
asVwrapped present
p6072
(lp6073
g618
asVsquared cjk unified ideograph-7121\u224a squared negation ideograph
p6074
(lp6075
g510
asVmobile phone off
p6076
(lp6077
g1820
asVgraduation
p6078
(lp6079
g882
ag607
asVpushpin
p6080
(lp6081
g1122
ag1122
ag1123
asVrock-on
p6082
(lp6083
g2068
asVbanknote with yen sign\u224a yen banknote
p6084
(lp6085
g863
asVdialog
p6086
(lp6087
g1474
ag2934
asVfirework sparkler\u224a sparkler
p6088
(lp6089
g611
asVgermany
p6090
(lp6091
g4994
asVflag for libya
p6092
(lp6093
g4064
asVchevron
p6094
(lp6095
g336
asVclinking beer mugs
p6096
(lp6097
g1731
asVcrystal ball
p6098
(lp6099
g1455
asVtwelve
p6100
(lp6101
g1996
ag1900
asVflag for guam
p6102
(lp6103
g5003
asVflag for equatorial guinea
p6104
(lp6105
g5002
asVflag for venezuela
p6106
(lp6107
g1362
asVstudio microphone
p6108
(lp6109
g1773
asVmountain railway
p6110
(lp6111
g906
asVfrog
p6112
(lp6113
g2128
asVblack up-pointing double triangle\u224a fast up button
p6114
(lp6115
g1291
asVframes
p6116
(lp6117
g1788
asVflag for yemen
p6118
(lp6119
g5038
asVtada
p6120
(lp6121
g847
ag613
asVcabo
p6122
(lp6123
g2535
asVflag for turkmenistan
p6124
(lp6125
g5032
asVmadagascar
p6126
(lp6127
g3189
asVjockey
p6128
(lp6129
g954
asVi
p6130
(lp6131
g783
asVflag for mauritania
p6132
(lp6133
g5015
asVdoll
p6134
(lp6135
g499
asVquestion
p6136
(lp6137
g756
ag757
ag758
asVfast
p6138
(lp6139
g1284
asVflag for niue
p6140
(lp6141
g643
asVsnow capped mountain\u224a snow-capped mountain
p6142
(lp6143
g1627
asVsuit
p6144
(lp6145
g3379
ag1615
ag2461
ag2892
ag2592
asVforward
p6146
(lp6147
g1284
asVfamily: man
p6148
(lp6149
g3134
ag3382
ag3135
ag3136
ag3383
ag3137
ag3384
ag3138
ag3139
ag3385
asVflag for european union
p6150
(lp6151
g4997
asVperplex
p6152
(lp6153
g2680
asVjewish
p6154
(lp6155
g3622
ag4671
asVrelaxed
p6156
(lp6157
g4779
asVvehicle
p6158
(lp6159
g897
ag898
ag899
ag900
ag901
ag902
ag456
ag903
ag904
ag905
ag906
ag907
ag908
ag909
ag362
ag911
ag912
ag913
ag914
ag915
ag916
ag917
ag918
ag919
ag920
ag921
ag705
ag922
ag381
ag926
ag930
ag931
ag932
ag933
ag935
ag936
ag937
ag938
ag939
ag940
ag942
ag444
ag943
ag944
ag945
ag2410
ag384
asVpeace symbol
p6160
(lp6161
g3044
asVfather christmas\u224a santa claus
p6162
(lp6163
g605
asVboys
p6164
(lp6165
g490
asVlink
p6166
(lp6167
g1125
ag1808
asVperson with folded hands
p6168
(lp6169
g143
ag144
ag145
ag146
ag147
asVflag for slovakia
p6170
(lp6171
g5025
asVpenguin
p6172
(lp6173
g2126
ag2126
asVmystify
p6174
(lp6175
g2680
asVwhite right pointing backhand index\u224a backhand index pointing right
p6176
(lp6177
g2064
asVmiddle
p6178
(lp6179
g4005
asVskull
p6180
(lp6181
g2294
ag2294
ag1654
asVreload
p6182
(lp6183
g1275
asVflag for tajikistan
p6184
(lp6185
g2307
asVaccess
p6186
(lp6187
g961
asVfries
p6188
(lp6189
g1559
asVup
p6190
(lp6191
g1160
ag2065
ag1416
ag1207
ag791
asVus
p6192
(lp6193
g3847
ag2715
asVanguished face
p6194
(lp6195
g5886
asVum
p6196
(lp6197
g1461
asVmorocco
p6198
(lp6199
g5013
asVuk
p6200
(lp6201
g3162
asVguyana
p6202
(lp6203
g1644
asVjumbo
p6204
(lp6205
g3250
asVwine glass
p6206
(lp6207
g724
asVfried
p6208
(lp6209
g708
asValarm
p6210
(lp6211
g1740
asVbell
p6212
(lp6213
g1057
ag1736
ag615
ag1768
ag1768
ag1769
asVaerial
p6214
(lp6215
g944
asVchad
p6216
(lp6217
g5030
asVherzegovina
p6218
(lp6219
g1239
asVwarning
p6220
(lp6221
g965
asVflag for solomon islands
p6222
(lp6223
g1569
asVcurl
p6224
(lp6225
g1087
ag3047
ag3048
asVrainbow
p6226
(lp6227
g1385
ag1385
asVlemon
p6228
(lp6229
g1696
ag1696
asVpeach
p6230
(lp6231
g1701
ag1701
asVpeace
p6232
(lp6233
g2127
ag3044
asVclub
p6234
(lp6235
g2592
asVparlor
p6236
(lp6237
g1013
asVbeer mug
p6238
(lp6239
g1730
asVaerial tramway
p6240
(lp6241
g944
asVswirl
p6242
(lp6243
g1717
asVjapanese ogre\u224a ogre
p6244
(lp6245
g491
asVnice
p6246
(lp6247
g885
asVmountain bicyclist
p6248
(lp6249
g318
ag319
ag320
ag321
ag322
asVfearful face
p6250
(lp6251
g3074
asVstar of david
p6252
(lp6253
g4671
asVpineapple
p6254
(lp6255
g1698
ag1698
asVsports medal
p6256
(lp6257
g1747
asVlucia
p6258
(lp6259
g5010
asVinput symbol for latin letters\u224a input latin letters
p6260
(lp6261
g711
asVinsect
p6262
(lp6263
g331
ag2142
ag2143
ag2144
ag332
ag1689
asVflag for zimbabwe
p6264
(lp6265
g5040
asVcaribbean
p6266
(lp6267
g1230
asVclue
p6268
(lp6269
g1804
asVsightsee
p6270
(lp6271
g439
asVdesert
p6272
(lp6273
g2166
ag2166
ag2167
asVmaldives
p6274
(lp6275
g5017
asVexpressionless
p6276
(lp6277
g1051
asVdvd
p6278
(lp6279
g1077
ag1078
ag1078
asVclenched
p6280
(lp6281
g2425
ag1038
asVnew years
p6282
(lp6283
g426
asVcooked
p6284
(lp6285
g1711
asVwaxing
p6286
(lp6287
g2175
ag2177
asVbeverage
p6288
(lp6289
g980
ag436
ag1728
ag724
asVwater buffalo
p6290
(lp6291
g2102
asVbuffalo
p6292
(lp6293
g1896
ag2102
asVscroll
p6294
(lp6295
g1088
ag1088
asVonce
p6296
(lp6297
g1282
asVbanknote with dollar sign\u224a dollar banknote
p6298
(lp6299
g864
asVflag for albania
p6300
(lp6301
g4990
asVoffice building
p6302
(lp6303
g1067
asVtokelau
p6304
(lp6305
g3879
asVtobago
p6306
(lp6307
g3201
asVsplashing
p6308
(lp6309
g1471
asValien
p6310
(lp6311
g1871
ag1451
ag1452
asVflag for belarus
p6312
(lp6313
g1204
asVmusical keyboard
p6314
(lp6315
g1780
asVgolfer
p6316
(lp6317
g4014
asVmagnifying
p6318
(lp6319
g726
ag727
asVbeach with umbrella
p6320
(lp6321
g996
asVarticulated lorry
p6322
(lp6323
g705
asVdown-pointing red triangle\u224a red triangle pointed down
p6324
(lp6325
g2687
asVflag for liechtenstein
p6326
(lp6327
g5011
asVe-mail
p6328
(lp6329
g1093
ag1094
ag1095
ag1096
asVflag for canary islands
p6330
(lp6331
g3425
asVmosque
p6332
(lp6333
g3621
ag3621
asVyoung
p6334
(lp6335
g3409
ag2153
asVmahjong tile red dragon\u224a mahjong red dragon
p6336
(lp6337
g1763
asVmobile phone with rightwards arrow at left\u224a mobile phone with arrow
p6338
(lp6339
g1260
asVfriendly
p6340
(lp6341
V&#x1f609;
p6342
asVsent
p6343
(lp6344
g1096
ag1097
asV11:30
p6345
(lp6346
g2918
asVflag for uzbekistan
p6347
(lp6348
g4700
asVgarden
p6349
(lp6350
g3094
asVkitts
p6351
(lp6352
g3344
asVdessert
p6353
(lp6354
g494
ag1718
ag1719
ag1720
ag1721
ag1722
ag608
ag1723
ag1724
ag1725
ag1397
ag1726
asVkeycap asterisk
p6355
(lp6356
g2868
asVwave
p6357
(lp6358
g2426
ag1635
ag1766
asVchart with downwards trend\u224a chart decreasing
p6359
(lp6360
g1119
asVwavy
p6361
(lp6362
g820
asVolder man\u224a old man
p6363
(lp6364
g2571
asVcurry and rice\u224a curry rice
p6365
(lp6366
g1712
asVmauritania
p6367
(lp6368
g5015
asVcat face with wry smile
p6369
(lp6370
g2083
asVdragon face
p6371
(lp6372
g2131
asVharbor
p6373
(lp6374
g2341
asVcurly loop
p6375
(lp6376
g3047
asVnotes
p6377
(lp6378
g1772
asVmontserrat
p6379
(lp6380
g3949
asVhive
p6381
(lp6382
g859
asVanxious
p6383
(lp6384
g3549
asVcar
p6385
(lp6386
g898
ag906
ag907
ag914
ag915
ag918
ag919
ag926
ag944
ag957
asVwhite medium square
p6387
(lp6388
g3052
asVsatellite antenna
p6389
(lp6390
g1079
asVclock face eleven oclock\u224a eleven o\u2019clock
p6391
(lp6392
g2047
asVcrying face
p6393
(lp6394
g3010
asVhindu
p6395
(lp6396
g4493
asVvideo
p6397
(lp6398
g2854
ag1777
ag1789
ag1790
ag1791
ag545
ag1792
ag1793
asVtrackball
p6399
(lp6400
g1074
ag1074
asVflag for dominica
p6401
(lp6402
g4995
asVnorth pole
p6403
(lp6404
g885
asVspaghetti
p6405
(lp6406
g1714
ag1714
asVindex
p6407
(lp6408
g2063
ag2064
ag1160
ag2065
ag1618
ag1113
ag1118
asVsausage
p6409
(lp6410
g2160
asVbusiness
p6411
(lp6412
g3379
asVwaning
p6413
(lp6414
g1219
ag2180
asVpaddle
p6415
(lp6416
g2952
ag1758
asVflag for nepal
p6417
(lp6418
g5021
asVcell
p6419
(lp6420
g1783
ag1260
ag1817
ag1818
ag1819
ag1820
asVdark sunglasses\u224a sunglasses
p6421
(lp6422
g1671
asVclipboard
p6423
(lp6424
g1121
ag1121
asVtwins
p6425
(lp6426
g743
ag2779
asVbird
p6427
(lp6428
g3409
ag2125
ag2125
ag2127
asVyemen
p6429
(lp6430
g5038
asVbody
p6431
(lp6432
g2294
ag1654
ag606
ag1923
ag1467
ag2063
ag2064
ag1160
ag2065
ag2066
ag1618
ag1256
ag2067
ag2068
ag2069
ag2422
ag2423
ag1416
ag2424
ag2425
ag1038
ag2426
ag2427
ag1312
ag2428
ag518
ag5889
ag4409
ag3312
ag3716
ag4951
ag5890
ag1830
asVbrunei
p6433
(lp6434
g3168
asVmelancholy
p6435
(lp6436
g720
asVleg
p6437
(lp6438
g1298
asVsint
p6439
(lp6440
g1230
ag4452
asVpunch
p6441
(lp6442
g2425
ag1038
asVleo
p6443
(lp6444
g375
ag2781
ag2781
asVsquared cjk unified ideograph-5272\u224a squared divide ideograph
p6445
(lp6446
g509
asVpacking
p6447
(lp6448
g439
asVshaved ice
p6449
(lp6450
g1719
asVflag for oman
p6451
(lp6452
g634
asVsquared vs
p6453
(lp6454
g792
asVcyclist
p6455
(lp6456
g382
ag383
asVcloud with rain
p6457
(lp6458
g1384
asVflag for cook islands
p6459
(lp6460
g2997
asVmetro
p6461
(lp6462
g902
ag902
asVreceive
p6463
(lp6464
g1260
ag1095
ag1098
asV5:00
p6465
(lp6466
g2042
asV30
p6467
(lp6468
g1900
ag2520
ag2913
ag2623
ag341
ag2914
ag2915
ag2346
ag2916
ag2917
ag2468
ag2918
asVcoffin
p6469
(lp6470
g1813
ag1813
asVoar
p6471
(lp6472
g2952
asVpopcorn
p6473
(lp6474
g2163
ag2163
asVhoneypot
p6475
(lp6476
g860
asVvideo game
p6477
(lp6478
g1760
ag1760
ag1761
asVmedium white circle\u224a white circle
p6479
(lp6480
g3062
asVangry face
p6481
(lp6482
g3211
asVabcd
p6483
(lp6484
g774
asVapple
p6485
(lp6486
g1699
ag1047
asVspy
p6487
(lp6488
g3142
asVegypt
p6489
(lp6490
g3474
asVwin
p6491
(lp6492
g426
asVoden
p6493
(lp6494
g1715
ag1715
asVflag for cameroon
p6495
(lp6496
g4991
asVaustria
p6497
(lp6498
g2538
asVcupid
p6499
(lp6500
g1259
asVmotor
p6501
(lp6502
g2833
asVbaby bottle
p6503
(lp6504
g1727
asVviet nam
p6505
(lp6506
g2908
asVclockwise
p6507
(lp6508
g1275
ag1281
ag1282
asVcloud
p6509
(lp6510
g2191
ag2191
ag2192
ag548
ag2193
ag2194
ag1383
ag1384
ag1628
ag2195
ag472
ag2196
ag1059
asVrightwards arrow with hook\u224a left arrow curving right
p6511
(lp6512
g1272
asVsaudi arabia
p6513
(lp6514
g4486
asVusa
p6515
(lp6516
g3847
ag2715
asVjapanese dolls
p6517
(lp6518
g499
asVfisted hand sign
p6519
(lp6520
g243
ag244
ag245
ag246
ag247
asVflag for u.s. outlying islands
p6521
(lp6522
g3847
asVface massage
p6523
(lp6524
g1064
ag93
ag94
ag95
ag96
ag97
asVnobel
p6525
(lp6526
g396
asVeleven
p6527
(lp6528
g2047
ag2918
asVcamera
p6529
(lp6530
g2854
ag1787
ag1791
ag1791
ag545
ag1792
ag1816
asVcheeky
p6531
(lp6532
g3430
asVcrab
p6533
(lp6534
g995
ag2140
ag2140
ag2780
asVamusement park
p6535
(lp6536
g2403
ag2215
asVface savouring delicious food
p6537
(lp6538
g1461
asVcheeks
p6539
(lp6540
g5340
asVpencil
p6541
(lp6542
g1105
ag1105
ag1110
asVcrossed flags
p6543
(lp6544
g502
asVtangerine
p6545
(lp6546
g1695
ag1695
asVwaving black flag
p6547
(lp6548
g1811
asVtrain
p6549
(lp6550
g3025
ag897
ag898
ag899
ag900
ag901
ag901
ag903
ag925
asVpopper
p6551
(lp6552
g847
ag613
asVrabbit
p6553
(lp6554
g2113
ag2114
ag2114
asVbaby
p6555
(lp6556
g3409
ag5887
ag5887
ag33
ag34
ag35
ag36
ag37
ag1454
ag2122
ag2123
ag2124
ag1727
ag962
asVharvest
p6557
(lp6558
g571
asVflag for israel
p6559
(lp6560
g4983
asVbanknote with euro sign\u224a euro banknote
p6561
(lp6562
g865
asVcontrol knobs
p6563
(lp6564
g1774
asVpout
p6565
(lp6566
g3789
asVride
p6567
(lp6568
g2020
asVpackage
p6569
(lp6570
g2545
ag1099
ag1099
asVpolynesia
p6571
(lp6572
g3119
asVdonut
p6573
(lp6574
g1721
asVarcher
p6575
(lp6576
g1261
ag2782
asVcrossed
p6577
(lp6578
g1806
ag502
ag1280
asVheart with ribbon
p6579
(lp6580
g1669
asVkiss: woman
p6581
(lp6582
g3380
ag4788
asVclock face six-thirty\u224a six-thirty
p6583
(lp6584
g2915
asVflag for st. kitts & nevis
p6585
(lp6586
g3344
asVsaba
p6587
(lp6588
g1230
asVplug
p6589
(lp6590
g369
asVcontrol
p6591
(lp6592
g1774
ag699
asVmelilla
p6593
(lp6594
g2905
asVpatrol
p6595
(lp6596
g914
asVflag for hungary
p6597
(lp6598
g5004
asVlock
p6599
(lp6600
g1800
ag1800
ag1801
ag1802
ag657
ag1803
ag1804
asVdiamond shape with a dot inside\u224a diamond with a dot
p6601
(lp6602
g1477
asVpad
p6603
(lp6604
g1116
ag1117
asVhalloween
p6605
(lp6606
g663
ag420
asVhigh
p6607
(lp6608
g4005
ag1425
asVstreamer
p6609
(lp6610
g614
asVascension
p6611
(lp6612
g2297
asVtriangle
p6613
(lp6614
g1126
ag1283
ag1285
ag1286
ag1287
ag1289
asVtao
p6615
(lp6616
g1857
asVtrumpet
p6617
(lp6618
g1781
ag1781
asVsleeping face
p6619
(lp6620
g347
asVlamb
p6621
(lp6622
g3933
asVunited
p6623
(lp6624
g876
ag3162
ag3847
ag3848
ag2715
asVlame
p6625
(lp6626
g5564
asVsix
p6627
(lp6628
g2043
ag2915
ag768
asVhigh-speed train with bullet nose
p6629
(lp6630
g900
asVlamp
p6631
(lp6632
g1737
asVanimal
p6633
(lp6634
g1829
ag2080
ag2081
ag2082
ag2083
ag2084
ag2085
ag2086
ag826
ag2087
ag2088
ag2089
ag2090
ag2091
ag1850
ag1851
ag1852
ag2092
ag987
ag2093
ag375
ag2094
ag2095
ag2096
ag2097
ag2098
ag2099
ag2100
ag2101
ag2102
ag2103
ag2104
ag2105
ag2106
ag2107
ag1368
ag1369
ag1246
ag2108
ag1497
ag2109
ag2110
ag2111
ag1602
ag2112
ag2113
ag2114
ag2115
ag2116
ag2117
ag525
ag2118
ag2119
ag2120
ag2121
ag2122
ag2123
ag2124
ag2125
ag2126
ag2127
ag2128
ag2129
ag2130
ag843
ag2131
ag2132
ag2133
ag2134
ag850
ag2135
ag2136
ag2137
ag2138
ag2139
ag2140
ag2141
ag2142
ag2143
ag2144
ag332
ag1689
ag1690
ag2145
asVno bicycles
p6635
(lp6636
g384
asVpuckered
p6637
(lp6638
g3288
asVtrident emblem
p6639
(lp6640
g1506
asVflag for nicaragua
p6641
(lp6642
g5020
asVmalta
p6643
(lp6644
g5016
asVwatch
p6645
(lp6646
g1739
ag1739
asVflag for greenland
p6647
(lp6648
g5001
asVcarp streamer
p6649
(lp6650
g614
asVbuilding construction
p6651
(lp6652
g3614
asVnotebook
p6653
(lp6654
g1080
ag1085
ag1085
ag1086
asVtaco
p6655
(lp6656
g2161
ag2161
asVmultiplication
p6657
(lp6658
g3045
ag803
asVfirst quarter moon with face
p6659
(lp6660
g2183
asVtomato
p6661
(lp6662
g1704
ag1704
asVeritrea
p6663
(lp6664
g2333
asVboeing
p6665
(lp6666
g3250
asVflag for kosovo
p6667
(lp6668
g5037
asVlight
p6669
(lp6670
g408
ag926
ag837
ag927
ag1794
ag1476
ag1513
ag501
asVrobot
p6671
(lp6672
g3582
asVflag for algeria
p6673
(lp6674
g4996
asVwomans boots\u224a woman\u2019s boot
p6675
(lp6676
g1682
asVelectric light bulb\u224a light bulb
p6677
(lp6678
g1476
asVnecklace
p6679
(lp6680
g1685
asVkeeling
p6681
(lp6682
g2725
asVpart alternation mark
p6683
(lp6684
g3049
asVflag for heard & mcdonald islands
p6685
(lp6686
g3303
asVmute
p6687
(lp6688
g1764
ag1769
asVcocos
p6689
(lp6690
g2725
asVmenorah
p6691
(lp6692
g810
asVcostume
p6693
(lp6694
g663
asVhorns
p6695
(lp6696
g514
ag1449
ag2068
asVdo not litter symbol\u224a no littering
p6697
(lp6698
g970
asVflag for sierra leone
p6699
(lp6700
g5026
asVspeech balloon
p6701
(lp6702
g1474
asVbanknote
p6703
(lp6704
g863
ag864
ag865
ag866
ag1092
asVlithuania
p6705
(lp6706
g1429
asVrepublic of the congo
p6707
(lp6708
g1253
asVreversed hand with middle finger extended
p6709
(lp6710
g188
ag189
ag190
ag191
ag192
asVturban
p6711
(lp6712
g2391
asVpuerto rico
p6713
(lp6714
g5022
asVorange
p6715
(lp6716
g1695
ag1083
ag3057
ag3058
asVderelict
p6717
(lp6718
g3617
asVholiday
p6719
(lp6720
g1554
asVflex
p6721
(lp6722
g1467
asVprayer beads
p6723
(lp6724
g1685
asVcitrus
p6725
(lp6726
g1696
asVoutlined
p6727
(lp6728
g4779
ag758
ag759
ag3061
asVelephant
p6729
(lp6730
g2109
ag2109
asVbat
p6731
(lp6732
g1755
ag1758
asVbilliard
p6733
(lp6734
g1753
asVsnake
p6735
(lp6736
g843
ag843
ag844
asVkiss
p6737
(lp6738
g4707
ag3289
ag1144
ag4778
ag2507
ag2084
ag5888
ag5888
ag3380
ag2819
ag4788
ag1657
asVmaple leaf
p6739
(lp6740
g2155
asVclock face five-thirty\u224a five-thirty
p6741
(lp6742
g2914
asVheadphone
p6743
(lp6744
g1776
ag1776
asVday
p6745
(lp6746
g1155
asVliberia
p6747
(lp6748
g4538
asVflag in hole
p6749
(lp6750
g739
asVrice ball
p6751
(lp6752
g493
asVtram
p6753
(lp6754
g3105
ag898
ag904
ag904
ag907
ag362
asVkeycap
p6755
(lp6756
g763
ag2868
ag764
ag765
ag402
ag766
ag342
ag767
ag768
ag769
ag714
ag770
ag771
asVuniversity
p6757
(lp6758
g4005
asValien monster
p6759
(lp6760
g1452
asVconvenience store
p6761
(lp6762
g459
asVcircled ideograph accept\u224a circled accept ideograph
p6763
(lp6764
g793
asVlatvia
p6765
(lp6766
g5012
asVmode
p6767
(lp6768
g1819
asVcrossing
p6769
(lp6770
g966
asVclapper board
p6771
(lp6772
g1134
asVtropical fish
p6773
(lp6774
g2136
asVtray
p6775
(lp6776
g1097
ag1098
asVglasses
p6777
(lp6778
g1949
ag1950
ag1670
ag1671
asVnew moon symbol\u224a new moon
p6779
(lp6780
g2174
asVbeginner
p6781
(lp6782
g336
asVsquared cjk unified ideograph-6708\u224a squared moon ideograph
p6783
(lp6784
g505
asVflag for el salvador
p6785
(lp6786
g5028
asVglobe
p6787
(lp6788
g1905
ag1906
ag1897
ag1907
asVserbia
p6789
(lp6790
g3108
asVsyringe
p6791
(lp6792
g1355
ag1355
asVbooks
p6793
(lp6794
g1084
ag1084
asVflag for turks & caicos islands
p6795
(lp6796
g3860
asVagriculture
p6797
(lp6798
g571
asVpopping
p6799
(lp6800
g1991
asVpotable water symbol\u224a potable water
p6801
(lp6802
g960
asVopen file folder
p6803
(lp6804
g1112
asVentertainment
p6805
(lp6806
g2020
ag1487
ag3032
ag2403
ag2215
ag3623
ag1734
ag976
ag420
ag609
ag610
ag611
ag1024
ag612
ag613
ag427
ag497
ag499
ag614
ag615
ag616
ag618
ag1745
ag1746
ag1759
ag1542
ag1760
ag1761
ag1762
ag1413
ag500
ag1425
ag515
ag1770
ag1771
ag1772
ag1775
ag1776
ag1777
ag1778
ag1779
ag1780
ag1781
ag1782
ag1075
ag1078
ag1787
ag1788
ag1789
ag1134
ag1790
ag1791
ag1792
ag1793
ag1816
asVpitcairn
p6807
(lp6808
g3786
asVfile cabinet
p6809
(lp6810
g1129
asVdelivery truck
p6811
(lp6812
g921
asVprincipe
p6813
(lp6814
g4233
asVred
p6815
(lp6816
g5340
ag1983
ag1699
ag1763
ag501
ag1290
ag325
ag3059
ag2687
ag3064
asVclipperton
p6817
(lp6818
g3079
asVumbrella
p6819
(lp6820
g996
ag1386
ag1387
ag1387
ag1388
ag951
asVrowboat
p6821
(lp6822
g931
ag931
ag283
ag284
ag285
ag286
ag287
asVconfounded face
p6823
(lp6824
g3208
asVemoji modifier
p6825
(lp6826
g2253
ag2254
ag2255
ag2256
ag2257
asVkiribati
p6827
(lp6828
g4677
asVflag for macau
p6829
(lp6830
g591
asVprincess
p6831
(lp6832
g396
ag1453
ag1453
ag63
ag64
ag65
ag66
ag67
asVscary
p6833
(lp6834
g663
asVfitzpatrick
p6835
(lp6836
g2253
ag2254
ag2255
ag2256
ag2257
asVflag for senegal
p6837
(lp6838
g5027
asVtimer
p6839
(lp6840
g1738
ag450
ag1742
asVdavid
p6841
(lp6842
g4671
asVbirthday
p6843
(lp6844
g604
ag608
asVpudding
p6845
(lp6846
g1726
asVflag for timor-leste
p6847
(lp6848
g1878
asVretail
p6849
(lp6850
g2801
asVsouth
p6851
(lp6852
g1265
ag4147
ag2578
ag3285
ag4633
asVwistful
p6853
(lp6854
g1970
asVmilitary medal
p6855
(lp6856
g620
asVbouquet
p6857
(lp6858
g1691
ag1691
asVscene
p6859
(lp6860
g1937
asVjesus
p6861
(lp6862
g378
asVsvalbard
p6863
(lp6864
g328
asVflexed biceps
p6865
(lp6866
g1467
ag163
ag164
ag165
ag166
ag167
asVflag for romania
p6867
(lp6868
g4737
asVkidding
p6869
(lp6870
V&#x1f61d;
p6871
asVsquared cjk unified ideograph-6e80\u224a squared fullness ideograph
p6872
(lp6873
g800
asVfilm frames
p6874
(lp6875
g1788
asVmonkey
p6876
(lp6877
g1572
ag2087
ag2088
ag2089
ag2090
ag2091
ag2091
asVprivacy
p6878
(lp6879
g1802
asVfestival
p6880
(lp6881
g1554
ag499
asVguiana
p6882
(lp6883
g3117
asVflag for djibouti
p6884
(lp6885
g2482
asVdominica
p6886
(lp6887
g4995
asVwrapped
p6888
(lp6889
g618
asVslovakia
p6890
(lp6891
g5025
asVsquared free
p6892
(lp6893
g782
asVshell
p6894
(lp6895
g995
ag2139
asVgear
p6896
(lp6897
g1520
ag1520
asVmariana
p6898
(lp6899
g4067
asVblack square for stop\u224a stop button
p6900
(lp6901
g1953
asVmotorcycle
p6902
(lp6903
g958
asVslider
p6904
(lp6905
g894
asVflag for gabon
p6906
(lp6907
g4999
asVflag for panama
p6908
(lp6909
g551
asVsao tome
p6910
(lp6911
g4233
asVjuly
p6912
(lp6913
g1365
asVgoblin
p6914
(lp6915
g492
asVwhite frowning face\u224a frowning face
p6916
(lp6917
g4365
asVunamused
p6918
(lp6919
g5564
ag4337
asVtanabata tree
p6920
(lp6921
g497
asVmotor boat
p6922
(lp6923
g935
asVfuelpump
p6924
(lp6925
g923
asVflag for mozambique
p6926
(lp6927
g5018
asVsplayed
p6928
(lp6929
g2069
asVbed
p6930
(lp6931
g350
ag350
asVbee
p6932
(lp6933
g859
ag2144
asVclaim
p6934
(lp6935
g964
asVsweden
p6936
(lp6937
g5024
asVsavouring
p6938
(lp6939
g1461
asVschool satchel\u224a school backpack
p6940
(lp6941
g440
asVflag for sri lanka
p6942
(lp6943
g3503
asVflower playing cards
p6944
(lp6945
g500
asVtabs
p6946
(lp6947
g1090
asVuganda
p6948
(lp6949
g5036
asVmedium black circle\u224a black circle
p6950
(lp6951
g3063
asVblack spade suit\u224a spade suit
p6952
(lp6953
g1615
asVclosed mailbox with raised flag
p6954
(lp6955
g1100
asVflag for st. martin
p6956
(lp6957
g3118
asVmicrophone
p6958
(lp6959
g1773
ag1775
ag1775
asVmic
p6960
(lp6961
g1773
ag1775
asVbilliards
p6962
(lp6963
g1753
asVtokyo tower
p6964
(lp6965
g3259
asVthunder cloud and rain\u224a cloud with lightning and rain
p6966
(lp6967
g548
asVbarber pole
p6968
(lp6969
g3420
asVblack question mark ornament\u224a question mark
p6970
(lp6971
g757
asVoncoming automobile
p6972
(lp6973
g919
asVanger symbol
p6974
(lp6975
g1468
asVkazakhstan
p6976
(lp6977
g2861
asVeight
p6978
(lp6979
g2045
ag2916
ag1753
ag714
asVsouth africa
p6980
(lp6981
g4633
asVhandbag
p6982
(lp6983
g1676
ag1676
asVbath\u224a person taking bath
p6984
(lp6985
g949
asVcabinet
p6986
(lp6987
g1129
asVmedal
p6988
(lp6989
g620
ag1747
asVvolume
p6990
(lp6991
g1764
ag1765
ag1766
ag1425
asVgreen apple
p6992
(lp6993
g1047
asVnot amused
p6994
(lp6995
g5564
asVhot dog
p6996
(lp6997
g2160
ag2160
asVurn
p6998
(lp6999
g1814
asVscales\u224a balance scale
p7000
(lp7001
g1523
asVcouple with heart: woman
p7002
(lp7003
g3381
ag4789
asVface
p7004
(lp7005
g524
ag4398
ag2007
ag3009
ag1322
ag1823
ag3669
ag1141
ag1042
ag4777
ag1461
ag1950
ag372
ag3289
ag1144
ag4778
ag2507
ag4779
ag4780
ag3719
ag1448
ag1964
ag3684
ag2050
ag1051
ag1824
ag2878
ag1890
ag1152
ag677
ag1825
ag1826
ag1336
ag346
ag486
ag347
ag4470
ag5885
ag1043
ag3906
ag4337
ag5680
ag1605
ag3300
ag2289
ag1827
ag2708
ag1354
ag2238
ag721
ag4365
ag2407
ag3208
ag3403
ag3550
ag469
ag3010
ag2674
ag1828
ag5886
ag3074
ag487
ag3488
ag531
ag1872
ag2883
ag1494
ag1983
ag3211
ag1449
ag1178
ag491
ag492
ag2294
ag1654
ag1450
ag1451
ag1452
ag3582
ag1466
ag1829
ag2080
ag2081
ag2082
ag2083
ag2084
ag2085
ag2086
ag826
ag2087
ag2088
ag2089
ag539
ag1454
ag834
ag3716
ag2090
ag1850
ag2092
ag987
ag375
ag2094
ag2097
ag2099
ag2100
ag2104
ag2107
ag2110
ag2112
ag2113
ag2116
ag525
ag2128
ag2131
ag2133
ag2182
ag2183
ag2184
ag2187
ag2188
ag1059
ag601
asVface with stuck-out tongue
p7006
(lp7007
g5885
asVlowered
p7008
(lp7009
g1101
ag1103
asVyum
p7010
(lp7011
g1186
ag1461
asVguinea
p7012
(lp7013
g690
ag5002
ag3936
ag575
asVeuropean castle\u224a castle
p7014
(lp7015
g2399
asVflag for cyprus
p7016
(lp7017
g359
asVpainting
p7018
(lp7019
g1871
ag1069
ag976
ag1108
asVlongevity
p7020
(lp7021
g571
asVsenegal
p7022
(lp7023
g5027
asVlink symbol\u224a link
p7024
(lp7025
g1808
asVgabon
p7026
(lp7027
g4999
asVflag for tristan da cunha
p7028
(lp7029
g5029
asVchicken
p7030
(lp7031
g4305
ag2120
ag2120
ag1298
asVpause
p7032
(lp7033
g1286
ag1621
asVflag for cuba
p7034
(lp7035
g4992
asVnorth east arrow\u224a up-right arrow
p7036
(lp7037
g1263
asVscorpion
p7038
(lp7039
g2145
ag2145
ag2502
asVpolice officer
p7040
(lp7041
g2220
ag43
ag44
ag45
ag46
ag47
asVeat
p7042
(lp7043
g2846
asVvirgo
p7044
(lp7045
g1663
ag1664
ag1664
asVbrazzaville
p7046
(lp7047
g1253
asVlibra
p7048
(lp7049
g1523
ag2338
ag2338
asVtape
p7050
(lp7051
g1793
asVfuel
p7052
(lp7053
g923
asVflag for grenada
p7054
(lp7055
g823
asVpiano
p7056
(lp7057
g1780
asVlarge red circle\u224a red circle
p7058
(lp7059
g3064
asVwhite exclamation mark ornament\u224a white exclamation mark
p7060
(lp7061
g759
asVnail polish
p7062
(lp7063
g518
ag268
ag269
ag270
ag271
ag272
asVearbud
p7064
(lp7065
g1776
asVsagittarius
p7066
(lp7067
g1261
ag2782
ag2782
asVcuba
p7068
(lp7069
g4992
asVage restriction
p7070
(lp7071
g772
asVbear
p7072
(lp7073
g524
ag2116
ag2117
asVface with look of triumph\u224a face with steam from nose
p7074
(lp7075
g469
asVbaggage claim
p7076
(lp7077
g964
asVflag for netherlands
p7078
(lp7079
g1231
asVsassy
p7080
(lp7081
g2326
asVblack nib
p7082
(lp7083
g1106
asVface with thermometer
p7084
(lp7085
g2238
asVcherry blossom
p7086
(lp7087
g2146
asVpublic address
p7088
(lp7089
g1426
asVprevious scene
p7090
(lp7091
g1289
asVchildren crossing
p7092
(lp7093
g966
asVdenmark
p7094
(lp7095
g2677
asVdejected
p7096
(lp7097
g1605
asVsquared new
p7098
(lp7099
g572
asVbackhand
p7100
(lp7101
g2063
ag2064
ag2065
ag1618
asVcrying cat face
p7102
(lp7103
g2086
asVsoft ice cream
p7104
(lp7105
g1718
asVshedding
p7106
(lp7107
g730
asValbania
p7108
(lp7109
g4990
asVslightly smiling face
p7110
(lp7111
g4780
asVoncoming police car
p7112
(lp7113
g915
asVframe
p7114
(lp7115
g1069
asVcomputer
p7116
(lp7117
g2265
ag1071
ag542
ag1072
ag1786
ag1073
ag1074
ag1075
ag1076
ag1077
ag1078
asVvibration mode
p7118
(lp7119
g1819
asVtwo women holding hands
p7120
(lp7121
g744
asVcold
p7122
(lp7123
g3549
ag3669
ag5680
ag1354
ag531
ag1627
ag1628
ag1629
ag1630
ag1631
ag1475
asVcloset
p7124
(lp7125
g671
asVblack left-pointing triangle\u224a reverse button
p7126
(lp7127
g1287
asVlock with ink pen\u224a lock with pen
p7128
(lp7129
g1802
asVicecream
p7130
(lp7131
g1718
asVunited states
p7132
(lp7133
g3847
ag3848
ag2715
asVcloudless
p7134
(lp7135
g4614
asVclosed
p7136
(lp7137
g2507
ag1081
ag1100
ag1101
ag1800
ag657
asVhorrible
p7138
(lp7139
g3906
asVpistol
p7140
(lp7141
g560
ag560
asVfrustrated
p7142
(lp7143
g5265
asVemail
p7144
(lp7145
g1093
ag1094
ag1095
ag1096
asVpants
p7146
(lp7147
g390
asVjoy
p7148
(lp7149
V&#x1f602;
p7150
ag3009
ag2081
asVperson with folded hands\u224a folded hands
p7151
(lp7152
g1923
asVcard index
p7153
(lp7154
g1118
asVkey
p7155
(lp7156
g657
ag1803
ag1803
ag1804
asVcte ivoire
p7157
(lp7158
g3217
asVconfetti ball
p7159
(lp7160
g427
asVflag for georgia
p7161
(lp7162
g5000
asVrosette
p7163
(lp7164
g2147
ag2147
asVbookmark tabs
p7165
(lp7166
g1090
asVdrum
p7167
(lp7168
g1815
asVear of maize\u224a ear of corn
p7169
(lp7170
g1706
asVflag for british indian ocean territory
p7171
(lp7172
g2388
asVjoke
p7173
(lp7174
g6342
ag1043
asVred apple
p7175
(lp7176
g1699
asVjersey
p7177
(lp7178
g5006
asVhundred points symbol\u224a hundred points
p7179
(lp7180
g598
asVgibbous
p7181
(lp7182
g2177
ag1219
asVnight with stars
p7183
(lp7184
g2170
asVcl
p7185
(lp7186
g780
asVtunisia
p7187
(lp7188
g5033
asVflag for india
p7189
(lp7190
g853
asVflag for morocco
p7191
(lp7192
g5013
asVwalk
p7193
(lp7194
g1545
asVneutral face
p7195
(lp7196
g2050
asVflag for monaco
p7197
(lp7198
g5014
asVlaugh
p7199
(lp7200
g6047
ag3009
ag1141
asVflag for czech republic
p7201
(lp7202
g4993
asVswimmer
p7203
(lp7204
g955
ag955
ag298
ag299
ag300
ag301
ag302
asVman with gua pi mao
p7205
(lp7206
g48
ag49
ag50
ag51
ag52
asVblack right-pointing double triangle\u224a fast-forword button
p7207
(lp7208
g1284
asVtrademark
p7209
(lp7210
g693
asVso tom
p7211
(lp7212
g4233
asVexhausted
p7213
(lp7214
g485
asVsouth east arrow\u224a down-right arrow
p7215
(lp7216
g1264
asViran
p7217
(lp7218
g4668
asVpaperclip
p7219
(lp7220
g1124
ag1124
ag1125
asVpage with curl
p7221
(lp7222
g1087
asVmoneybag
p7223
(lp7224
g1091
asVsunset over buildings\u224a sunset
p7225
(lp7226
g2172
asVrobot face
p7227
(lp7228
g3582
asVwhite up pointing backhand index\u224a backhand index pointing up
p7229
(lp7230
g2065
asVsleuth or spy
p7231
(lp7232
g73
ag74
ag75
ag76
ag77
asVgreen heart
p7233
(lp7234
g1046
asVcontroller
p7235
(lp7236
g1760
asVcricket bat and ball\u224a cricket
p7237
(lp7238
g1755
asVbull
p7239
(lp7240
g2101
ag1542
ag2778
asVbulb
p7241
(lp7242
g1476
asVpine decoration
p7243
(lp7244
g498
asVpresent
p7245
(lp7246
g2545
ag618
asVflag for russia
p7247
(lp7248
g3763
asVconfused face
p7249
(lp7250
g3300
asVflag for bhutan
p7251
(lp7252
g2228
asVfearful
p7253
(lp7254
g2700
ag3074
ag1872
asVbritain
p7255
(lp7256
g3162
asVirate
p7257
(lp7258
g3789
asVgrinning
p7259
(lp7260
g4397
asVchagos
p7261
(lp7262
g2388
asVantigua
p7263
(lp7264
g1007
asVtasty
p7265
(lp7266
g1186
asVparty popper
p7267
(lp7268
g613
asVbathtub
p7269
(lp7270
g949
ag950
ag950
asVspider web
p7271
(lp7272
g1690
asVfile
p7273
(lp7274
g1111
ag1112
ag1128
ag1129
asVflag for sweden
p7275
(lp7276
g5024
asVdisapprove
p7277
(lp7278
g5564
asVrooster
p7279
(lp7280
g2121
ag2121
asVvs
p7281
(lp7282
g792
asVprevious track
p7283
(lp7284
g1289
asVadultery
p7285
(lp7286
g1958
asVkeycap digit one
p7287
(lp7288
g765
asVtattoo
p7289
(lp7290
g2341
asVshooting
p7291
(lp7292
g2190
asVflag for mali
p7293
(lp7294
g3037
asVoink
p7295
(lp7296
g2846
asVballoon
p7297
(lp7298
g604
ag1474
ag3212
ag423
ag612
ag612
asVbuddhist
p7299
(lp7300
g2404
asVcross
p7301
(lp7302
g539
ag3620
ag502
ag2597
ag4314
asVflag for st. lucia
p7303
(lp7304
g5010
asVromance
p7305
(lp7306
g1958
ag5888
ag3179
ag1657
ag1259
ag1833
ag1687
ag1688
ag1691
ag433
asVspeaker
p7307
(lp7308
g1764
ag1765
ag1765
ag1766
ag1425
asVnorthwest
p7309
(lp7310
g1268
asVparty
p7311
(lp7312
g426
ag613
asVflag for greece
p7313
(lp7314
g3770
asVball
p7315
(lp7316
g426
ag493
ag427
ag1440
ag1748
ag1303
ag1749
ag1750
ag1751
ag1752
ag1753
ag1754
ag1755
ag1756
ag1758
ag4014
ag956
ag1455
asVdusk
p7317
(lp7318
g566
ag674
ag2172
asVdrink
p7319
(lp7320
g1727
ag980
ag436
ag1728
ag1991
ag724
ag725
ag1729
ag1730
ag1731
ag557
ag960
ag971
asVdiscouraged
p7321
(lp7322
g3748
asVwhale
p7323
(lp7324
g1548
ag2133
ag2134
ag2134
asVracing motorcycle\u224a motorcycle
p7325
(lp7326
g958
asVidentity
p7327
(lp7328
g784
asVpoultry
p7329
(lp7330
g4305
ag1298
asVoff
p7331
(lp7332
g1820
asVbadminton
p7333
(lp7334
g1400
asVweapon
p7335
(lp7336
g556
ag557
ag1805
ag1806
ag560
ag1261
ag1807
asVindonesia
p7337
(lp7338
g3247
asVthought
p7339
(lp7340
g423
asVdharma
p7341
(lp7342
g2404
asVthumbs up sign
p7343
(lp7344
g228
ag229
ag230
ag231
ag232
asVspiral note pad\u224a spiral notepad
p7345
(lp7346
g1116
asVpoultry leg
p7347
(lp7348
g1298
asVgrenadines
p7349
(lp7350
g1004
asVmuscle
p7351
(lp7352
g1467
asVcoaster
p7353
(lp7354
g2020
ag2215
asVinebriated
p7355
(lp7356
g2365
asVrocket
p7357
(lp7358
g1365
ag945
ag945
asVcamel
p7359
(lp7360
g2108
ag1497
asVswords
p7361
(lp7362
g1806
asVmusical score
p7363
(lp7364
g1770
asVarriving
p7365
(lp7366
g940
asVvoltage
p7367
(lp7368
g368
asVhappiness
p7369
(lp7370
g490
asVczech republic
p7371
(lp7372
g4993
asVflashlight
p7373
(lp7374
g1513
asVweb
p7375
(lp7376
g1690
asVno mobile phones
p7377
(lp7378
g1818
asVmaarten
p7379
(lp7380
g4452
asVantarctic
p7381
(lp7382
g3120
asVdrunk
p7383
(lp7384
g2365
asVsky
p7385
(lp7386
g1365
asVmicronesia
p7387
(lp7388
g3234
asVbook
p7389
(lp7390
g1080
ag1081
ag1082
ag1048
ag533
ag1083
ag1084
asVaruba
p7391
(lp7392
g631
asVcosmetics
p7393
(lp7394
g518
ag1686
asVface throwing a kiss
p7395
(lp7396
g3289
asV5
p7397
(lp7398
g2042
ag2914
ag767
asVflag for latvia
p7399
(lp7400
g5012
asVski
p7401
(lp7402
g2833
ag1551
ag953
ag1632
asVsierra leone
p7403
(lp7404
g5026
asVboom
p7405
(lp7406
g1470
asVtsukimi
p7407
(lp7408
g1937
asVreminder ribbon
p7409
(lp7410
g619
asVflag for congo - brazzaville
p7411
(lp7412
g1253
asVlivid
p7413
(lp7414
g2262
asVfuji
p7415
(lp7416
g2164
asVvictory hand
p7417
(lp7418
g1256
ag198
ag199
ag200
ag201
ag202
asVroyalty
p7419
(lp7420
g396
asVfive
p7421
(lp7422
g2042
ag2914
ag767
asVbelgium
p7423
(lp7424
g3400
asVdoughnut
p7425
(lp7426
g1721
ag1721
asVpassword
p7427
(lp7428
g1803
asVleft-pointing magnifying glass
p7429
(lp7430
g726
asVface with ok gesture\u224a gesturing ok
p7431
(lp7432
g2420
asVraised hand
p7433
(lp7434
g2422
ag218
ag219
ag220
ag221
ag222
asVwomans sandal\u224a woman\u2019s sandal
p7435
(lp7436
g1681
asVfront-facing baby chick
p7437
(lp7438
g2124
asVreversed hand with middle finger extended\u224a middle finger
p7439
(lp7440
g2066
asVwhite up pointing index
p7441
(lp7442
g178
ag179
ag180
ag181
ag182
asVflag for finland
p7443
(lp7444
g4998
asVchick
p7445
(lp7446
g3409
ag2122
ag2123
ag2124
asVsoft
p7447
(lp7448
g1718
asVpage
p7449
(lp7450
g1087
ag1089
asVheel
p7451
(lp7452
g1680
asVclassical
p7453
(lp7454
g3613
asVscared
p7455
(lp7456
g663
ag3074
ag1872
asVgrowth
p7457
(lp7458
g353
ag578
asVmozambique
p7459
(lp7460
g5018
asVflush
p7461
(lp7462
g5340
asVhome
p7463
(lp7464
g356
ag3196
ag3094
asVsouth west arrow\u224a down-left arrow
p7465
(lp7466
g1266
asVballot
p7467
(lp7468
g1799
ag2815
asVtransport
p7469
(lp7470
g3105
asVscales
p7471
(lp7472
g1523
ag2338
asVleaf
p7473
(lp7474
g586
ag339
ag2155
ag2156
ag1058
ag336
asVturkmenistan
p7475
(lp7476
g5032
asVsteaming
p7477
(lp7478
g1713
ag980
ag981
asV8 ball
p7479
(lp7480
g1753
asVwhite question mark ornament\u224a white question mark
p7481
(lp7482
g758
asVanguished
p7483
(lp7484
g5886
asVpassion
p7485
(lp7486
g3288
asVtruffle
p7487
(lp7488
g2846
asVchains
p7489
(lp7490
g1809
asVflag for puerto rico
p7491
(lp7492
g5022
asVpepper
p7493
(lp7494
g979
asVslice of pizza\u224a pizza
p7495
(lp7496
g1001
asVchequered flag
p7497
(lp7498
g750
asVshopping bags
p7499
(lp7500
g1677
asVfull moon with face
p7501
(lp7502
g2187
asVprohibited
p7503
(lp7504
g2087
ag2088
ag2089
ag2419
ag1769
ag967
ag968
ag384
ag969
ag970
ag971
ag972
ag1818
ag772
asVflag for niger
p7505
(lp7506
g4958
asVsquared cjk unified ideograph-7981\u224a squared prohibit ideograph
p7507
(lp7508
g511
asVpasta
p7509
(lp7510
g1714
asVoutbox
p7511
(lp7512
g1097
asVgifts
p7513
(lp7514
g378
asVquarter
p7515
(lp7516
g2176
ag2179
ag2183
ag2184
asVcityscape at dusk
p7517
(lp7518
g674
asVinbox
p7519
(lp7520
g1098
asVsweat
p7521
(lp7522
g3549
ag3669
ag5680
ag531
ag1471
ag1475
asVadmission tickets
p7523
(lp7524
g1745
asVtongue
p7525
(lp7526
g3430
ag5885
ag1043
ag3906
ag5890
ag5890
asVemperor
p7527
(lp7528
g1155
asVferris wheel
p7529
(lp7530
g2403
asVburma
p7531
(lp7532
g660
asVreptile
p7533
(lp7534
g3514
asVhugging face
p7535
(lp7536
g3719
asVe-mail symbol\u224a e-mail
p7537
(lp7538
g1094
asVflag for iraq
p7539
(lp7540
g2281
asVthree
p7541
(lp7542
g2017
ag2623
ag1425
ag1073
ag766
asVguard
p7543
(lp7544
g3231
asVweather
p7545
(lp7546
g1950
ag1295
ag2169
ag2170
ag888
ag2171
ag674
ag2172
ag1583
ag2173
ag2174
ag2175
ag2176
ag2177
ag2178
ag1219
ag2179
ag2180
ag2181
ag2182
ag2183
ag2184
ag2185
ag2186
ag2187
ag2188
ag2191
ag2192
ag548
ag2193
ag2194
ag1383
ag1384
ag1628
ag2195
ag472
ag2196
ag1059
ag2197
ag1385
ag1386
ag1387
ag1388
ag951
ag1629
ag1630
ag1631
ag1475
ag1635
asVhungary
p7547
(lp7548
g5004
asVfemale
p7549
(lp7550
g3933
asVmortarboard
p7551
(lp7552
g882
asVpostal horn
p7553
(lp7554
g515
asVdemocratic republic of congo
p7555
(lp7556
g651
asVinformation source
p7557
(lp7558
g783
asVkissing face with smiling eyes
p7559
(lp7560
g4778
asVcustard
p7561
(lp7562
g1726
ag1726
asVmaize
p7563
(lp7564
g1706
asVrushed
p7565
(lp7566
g531
asVmuseum
p7567
(lp7568
g1069
ag976
asVspiral
p7569
(lp7570
g995
ag2139
ag1116
ag1117
asVname badge
p7571
(lp7572
g1131
asVimperial
p7573
(lp7574
g1155
asVdouble exclamation mark
p7575
(lp7576
g755
asVmaze
p7577
(lp7578
g1706
asVflag for guadeloupe
p7579
(lp7580
g3282
asVmenorah with nine branches\u224a menorah
p7581
(lp7582
g810
asVface with rolling eyes
p7583
(lp7584
g2878
asVcricket
p7585
(lp7586
g1755
asVnorth
p7587
(lp7588
g1262
ag2577
ag4067
asVbus
p7589
(lp7590
g908
ag908
ag909
ag362
ag910
ag911
asVdelivery
p7591
(lp7592
g921
asVneutral
p7593
(lp7594
g2050
asVconstruction
p7595
(lp7596
g417
ag3614
ag928
asVairplane departure
p7597
(lp7598
g939
asVwhite large square
p7599
(lp7600
g3056
asVhocho\u224a kitchen knife
p7601
(lp7602
g556
asVautomated
p7603
(lp7604
g840
asVwind chime
p7605
(lp7606
g615
asVear
p7607
(lp7608
g2396
ag5889
ag5889
ag273
ag274
ag275
ag276
ag277
ag1938
ag1706
asVbug
p7609
(lp7610
g331
ag2142
ag2142
asVwitness
p7611
(lp7612
g4525
asVsaxophone
p7613
(lp7614
g1778
ag1778
asVflag for sudan
p7615
(lp7616
g4455
asVblack medium small square\u224a black medium-small square
p7617
(lp7618
g3054
asVsouth sandwich
p7619
(lp7620
g4147
asVwish
p7621
(lp7622
g1554
asVsmooth
p7623
(lp7624
g1949
asVlarge orange diamond
p7625
(lp7626
g3057
asVexcitement
p7627
(lp7628
g1365
asVrecord
p7629
(lp7630
g4174
asVeyeglasses\u224a glasses
p7631
(lp7632
g1670
asVcake
p7633
(lp7634
g1717
ag608
ag1723
asVpin
p7635
(lp7636
g1122
ag1123
asVface with no good gesture\u224a gesturing no
p7637
(lp7638
g2419
asVballot box with check
p7639
(lp7640
g2815
asVcircus
p7641
(lp7642
g3623
asVrolodex
p7643
(lp7644
g1118
asVpig
p7645
(lp7646
g2846
ag2104
ag2105
ag2105
ag2106
ag2107
asVflag for tuvalu
p7647
(lp7648
g5035
asVopen hands sign
p7649
(lp7650
g258
ag259
ag260
ag261
ag262
asVink
p7651
(lp7652
g1802
asVparaguay
p7653
(lp7654
g5023
asVsquared katakana koko
p7655
(lp7656
g503
asVeducation
p7657
(lp7658
g882
ag2428
ag440
ag607
ag441
ag1080
ag1081
ag1082
ag1048
ag533
ag1083
ag1084
asVflag for american samoa
p7659
(lp7660
g4840
asVkinshasa
p7661
(lp7662
g651
asVwestern sahara
p7663
(lp7664
g4138
asVboot
p7665
(lp7666
g1682
asVworld map
p7667
(lp7668
g3349
asVother
p7669
(lp7670
g2934
ag2297
ag4756
ag876
ag3082
ag1007
ag365
ag4990
ag1875
ag1306
ag4909
ag2875
ag4840
ag2538
ag4435
ag631
ag3961
ag3954
ag1239
ag3165
ag2941
ag3400
ag1054
ag3630
ag1944
ag2362
ag2246
ag4569
ag2268
ag3168
ag2722
ag1230
ag1930
ag3695
ag2228
ag4502
ag646
ag1204
ag2929
ag623
ag2725
ag651
ag1341
ag1253
ag3838
ag3217
ag2997
ag2316
ag4991
ag589
ag2383
ag3079
ag3969
ag4992
ag2535
ag1480
ag2629
ag359
ag4993
ag4994
ag3272
ag2482
ag2677
ag4995
ag1163
ag4996
ag2905
ag1175
ag2796
ag3474
ag4138
ag2333
ag4368
ag4236
ag4997
ag4998
ag583
ag2843
ag3234
ag3709
ag1539
ag4999
ag3162
ag823
ag5000
ag3117
ag411
ag4710
ag3391
ag5001
ag1410
ag690
ag3282
ag5002
ag3770
ag4147
ag1967
ag5003
ag3936
ag1644
ag590
ag3303
ag2763
ag4286
ag1980
ag5004
ag3425
ag3247
ag4938
ag4983
ag414
ag853
ag2388
ag2281
ag4668
ag1566
ag5005
ag5006
ag475
ag5007
ag1157
ag5008
ag3067
ag2828
ag4677
ag4126
ag3344
ag2577
ag2578
ag1195
ag405
ag2861
ag5009
ag680
ag5010
ag5011
ag3503
ag4538
ag1660
ag1429
ag3853
ag5012
ag4064
ag5013
ag5014
ag4212
ag1647
ag3118
ag3189
ag1458
ag2241
ag3037
ag660
ag4119
ag591
ag4067
ag4418
ag5015
ag3949
ag5016
ag2442
ag5017
ag1419
ag2355
ag2589
ag5018
ag1137
ag573
ag4958
ag829
ag5019
ag5020
ag1231
ag3459
ag5021
ag3964
ag643
ag574
ag634
ag551
ag3222
ag3119
ag575
ag1403
ag4094
ag1608
ag2743
ag3786
ag5022
ag1528
ag4179
ag2990
ag5023
ag687
ag3325
ag4737
ag3108
ag3763
ag2849
ag4486
ag1569
ag1147
ag4455
ag5024
ag4257
ag1422
ag2431
ag328
ag5025
ag5026
ag3773
ag5027
ag3091
ag2734
ag3285
ag4233
ag5028
ag4452
ag2574
ag595
ag5029
ag3860
ag5030
ag3120
ag5031
ag4483
ag2307
ag3879
ag1878
ag5032
ag5033
ag5034
ag4133
ag3201
ag5035
ag592
ag1035
ag3591
ag5036
ag3847
ag3848
ag3295
ag4700
ag1920
ag1004
ag1362
ag1443
ag2715
ag2908
ag4443
ag702
ag4352
ag5037
ag5038
ag1376
ag4633
ag5039
ag5040
asVsunrise
p7671
(lp7672
g3976
ag888
ag2171
ag2171
asVsick
p7673
(lp7674
g1845
ag1354
ag2238
ag1355
ag1356
asVgondola
p7675
(lp7676
g943
ag944
asVexclamation
p7677
(lp7678
g992
ag755
ag756
ag759
ag760
asVrepeat
p7679
(lp7680
g1281
asVstar
p7681
(lp7682
g1554
ag1473
ag2170
ag2189
ag528
ag2190
ag1024
ag4671
ag462
ag3050
ag2868
asVecstatic
p7683
(lp7684
g6871
asVfootprints
p7685
(lp7686
g3312
asVsmoking symbol\u224a smoking
p7687
(lp7688
g1812
asVballot box with ballot
p7689
(lp7690
g1799
asVwolf face
p7691
(lp7692
g2092
asVnegative squared ab\u224a ab button
p7693
(lp7694
g778
asVpig face
p7695
(lp7696
g2104
asVamerican football
p7697
(lp7698
g1750
asVveil
p7699
(lp7700
g1975
asVghost
p7701
(lp7702
g1450
ag1450
asVdroplet
p7703
(lp7704
g1475
asVsquared ng
p7705
(lp7706
g786
asVatheist
p7707
(lp7708
g813
asVequatorial guinea
p7709
(lp7710
g5002
asVjewel
p7711
(lp7712
g1688
asVflag for thailand
p7713
(lp7714
g4483
asVsmiling cat face with open mouth
p7715
(lp7716
g1829
asVnorth west arrow\u224a up-left arrow
p7717
(lp7718
g1268
asVrural
p7719
(lp7720
g5848
asVwind blowing face\u224a wind face
p7721
(lp7722
g1059
asVsash
p7723
(lp7724
g1028
asVflag for nigeria
p7725
(lp7726
g5019
as.