(dp0
V
p1
(lp2
S'&#x1f466&#x1f3fb'
p3
aS'&#x1f466&#x1f3fc'
p4
aS'&#x1f466&#x1f3fd'
p5
aS'&#x1f466&#x1f3fe'
p6
aS'&#x1f466&#x1f3ff'
p7
aS'&#x1f467&#x1f3fb'
p8
aS'&#x1f467&#x1f3fc'
p9
aS'&#x1f467&#x1f3fd'
p10
aS'&#x1f467&#x1f3fe'
p11
aS'&#x1f467&#x1f3ff'
p12
aS'&#x1f468&#x1f3fb'
p13
aS'&#x1f468&#x1f3fc'
p14
aS'&#x1f468&#x1f3fd'
p15
aS'&#x1f468&#x1f3fe'
p16
aS'&#x1f468&#x1f3ff'
p17
aS'&#x1f469&#x1f3fb'
p18
aS'&#x1f469&#x1f3fc'
p19
aS'&#x1f469&#x1f3fd'
p20
aS'&#x1f469&#x1f3fe'
p21
aS'&#x1f469&#x1f3ff'
p22
aS'&#x1f474&#x1f3fb'
p23
aS'&#x1f474&#x1f3fc'
p24
aS'&#x1f474&#x1f3fd'
p25
aS'&#x1f474&#x1f3fe'
p26
aS'&#x1f474&#x1f3ff'
p27
aS'&#x1f475&#x1f3fb'
p28
aS'&#x1f475&#x1f3fc'
p29
aS'&#x1f475&#x1f3fd'
p30
aS'&#x1f475&#x1f3fe'
p31
aS'&#x1f475&#x1f3ff'
p32
aS'&#x1f476&#x1f3fb'
p33
aS'&#x1f476&#x1f3fc'
p34
aS'&#x1f476&#x1f3fd'
p35
aS'&#x1f476&#x1f3fe'
p36
aS'&#x1f476&#x1f3ff'
p37
aS'&#x1f471&#x1f3fb'
p38
aS'&#x1f471&#x1f3fc'
p39
aS'&#x1f471&#x1f3fd'
p40
aS'&#x1f471&#x1f3fe'
p41
aS'&#x1f471&#x1f3ff'
p42
aS'&#x1f46e&#x1f3fb'
p43
aS'&#x1f46e&#x1f3fc'
p44
aS'&#x1f46e&#x1f3fd'
p45
aS'&#x1f46e&#x1f3fe'
p46
aS'&#x1f46e&#x1f3ff'
p47
aS'&#x1f472&#x1f3fb'
p48
aS'&#x1f472&#x1f3fc'
p49
aS'&#x1f472&#x1f3fd'
p50
aS'&#x1f472&#x1f3fe'
p51
aS'&#x1f472&#x1f3ff'
p52
aS'&#x1f473&#x1f3fb'
p53
aS'&#x1f473&#x1f3fc'
p54
aS'&#x1f473&#x1f3fd'
p55
aS'&#x1f473&#x1f3fe'
p56
aS'&#x1f473&#x1f3ff'
p57
aS'&#x1f477&#x1f3fb'
p58
aS'&#x1f477&#x1f3fc'
p59
aS'&#x1f477&#x1f3fd'
p60
aS'&#x1f477&#x1f3fe'
p61
aS'&#x1f477&#x1f3ff'
p62
aS'&#x1f478&#x1f3fb'
p63
aS'&#x1f478&#x1f3fc'
p64
aS'&#x1f478&#x1f3fd'
p65
aS'&#x1f478&#x1f3fe'
p66
aS'&#x1f478&#x1f3ff'
p67
aS'&#x1f482&#x1f3fb'
p68
aS'&#x1f482&#x1f3fc'
p69
aS'&#x1f482&#x1f3fd'
p70
aS'&#x1f482&#x1f3fe'
p71
aS'&#x1f482&#x1f3ff'
p72
aS'&#x1f575&#x1f3fb'
p73
aS'&#x1f575&#x1f3fc'
p74
aS'&#x1f575&#x1f3fd'
p75
aS'&#x1f575&#x1f3fe'
p76
aS'&#x1f575&#x1f3ff'
p77
aS'&#x1f385&#x1f3fb'
p78
aS'&#x1f385&#x1f3fc'
p79
aS'&#x1f385&#x1f3fd'
p80
aS'&#x1f385&#x1f3fe'
p81
aS'&#x1f385&#x1f3ff'
p82
aS'&#x1f470&#x1f3fb'
p83
aS'&#x1f470&#x1f3fc'
p84
aS'&#x1f470&#x1f3fd'
p85
aS'&#x1f470&#x1f3fe'
p86
aS'&#x1f470&#x1f3ff'
p87
aS'&#x1f47c&#x1f3fb'
p88
aS'&#x1f47c&#x1f3fc'
p89
aS'&#x1f47c&#x1f3fd'
p90
aS'&#x1f47c&#x1f3fe'
p91
aS'&#x1f47c&#x1f3ff'
p92
aS'&#x1f486&#x1f3fb'
p93
aS'&#x1f486&#x1f3fc'
p94
aS'&#x1f486&#x1f3fd'
p95
aS'&#x1f486&#x1f3fe'
p96
aS'&#x1f486&#x1f3ff'
p97
aS'&#x1f487&#x1f3fb'
p98
aS'&#x1f487&#x1f3fc'
p99
aS'&#x1f487&#x1f3fd'
p100
aS'&#x1f487&#x1f3fe'
p101
aS'&#x1f487&#x1f3ff'
p102
aS'&#x1f64d&#x1f3fb'
p103
aS'&#x1f64d&#x1f3fc'
p104
aS'&#x1f64d&#x1f3fd'
p105
aS'&#x1f64d&#x1f3fe'
p106
aS'&#x1f64d&#x1f3ff'
p107
aS'&#x1f64e&#x1f3fb'
p108
aS'&#x1f64e&#x1f3fc'
p109
aS'&#x1f64e&#x1f3fd'
p110
aS'&#x1f64e&#x1f3fe'
p111
aS'&#x1f64e&#x1f3ff'
p112
aS'&#x1f645&#x1f3fb'
p113
aS'&#x1f645&#x1f3fc'
p114
aS'&#x1f645&#x1f3fd'
p115
aS'&#x1f645&#x1f3fe'
p116
aS'&#x1f645&#x1f3ff'
p117
aS'&#x1f646&#x1f3fb'
p118
aS'&#x1f646&#x1f3fc'
p119
aS'&#x1f646&#x1f3fd'
p120
aS'&#x1f646&#x1f3fe'
p121
aS'&#x1f646&#x1f3ff'
p122
aS'&#x1f481&#x1f3fb'
p123
aS'&#x1f481&#x1f3fc'
p124
aS'&#x1f481&#x1f3fd'
p125
aS'&#x1f481&#x1f3fe'
p126
aS'&#x1f481&#x1f3ff'
p127
aS'&#x1f64b&#x1f3fb'
p128
aS'&#x1f64b&#x1f3fc'
p129
aS'&#x1f64b&#x1f3fd'
p130
aS'&#x1f64b&#x1f3fe'
p131
aS'&#x1f64b&#x1f3ff'
p132
aS'&#x1f647&#x1f3fb'
p133
aS'&#x1f647&#x1f3fc'
p134
aS'&#x1f647&#x1f3fd'
p135
aS'&#x1f647&#x1f3fe'
p136
aS'&#x1f647&#x1f3ff'
p137
aS'&#x1f64c&#x1f3fb'
p138
aS'&#x1f64c&#x1f3fc'
p139
aS'&#x1f64c&#x1f3fd'
p140
aS'&#x1f64c&#x1f3fe'
p141
aS'&#x1f64c&#x1f3ff'
p142
aS'&#x1f64f&#x1f3fb'
p143
aS'&#x1f64f&#x1f3fc'
p144
aS'&#x1f64f&#x1f3fd'
p145
aS'&#x1f64f&#x1f3fe'
p146
aS'&#x1f64f&#x1f3ff'
p147
aS'&#x1f6b6&#x1f3fb'
p148
aS'&#x1f6b6&#x1f3fc'
p149
aS'&#x1f6b6&#x1f3fd'
p150
aS'&#x1f6b6&#x1f3fe'
p151
aS'&#x1f6b6&#x1f3ff'
p152
aS'&#x1f3c3&#x1f3fb'
p153
aS'&#x1f3c3&#x1f3fc'
p154
aS'&#x1f3c3&#x1f3fd'
p155
aS'&#x1f3c3&#x1f3fe'
p156
aS'&#x1f3c3&#x1f3ff'
p157
aS'&#x1f483&#x1f3fb'
p158
aS'&#x1f483&#x1f3fc'
p159
aS'&#x1f483&#x1f3fd'
p160
aS'&#x1f483&#x1f3fe'
p161
aS'&#x1f483&#x1f3ff'
p162
aS'&#x1f4aa&#x1f3fb'
p163
aS'&#x1f4aa&#x1f3fc'
p164
aS'&#x1f4aa&#x1f3fd'
p165
aS'&#x1f4aa&#x1f3fe'
p166
aS'&#x1f4aa&#x1f3ff'
p167
aS'&#x1f448&#x1f3fb'
p168
aS'&#x1f448&#x1f3fc'
p169
aS'&#x1f448&#x1f3fd'
p170
aS'&#x1f448&#x1f3fe'
p171
aS'&#x1f448&#x1f3ff'
p172
aS'&#x1f449&#x1f3fb'
p173
aS'&#x1f449&#x1f3fc'
p174
aS'&#x1f449&#x1f3fd'
p175
aS'&#x1f449&#x1f3fe'
p176
aS'&#x1f449&#x1f3ff'
p177
aS'&#x261d&#x1f3fb'
p178
aS'&#x261d&#x1f3fc'
p179
aS'&#x261d&#x1f3fd'
p180
aS'&#x261d&#x1f3fe'
p181
aS'&#x261d&#x1f3ff'
p182
aS'&#x1f446&#x1f3fb'
p183
aS'&#x1f446&#x1f3fc'
p184
aS'&#x1f446&#x1f3fd'
p185
aS'&#x1f446&#x1f3fe'
p186
aS'&#x1f446&#x1f3ff'
p187
aS'&#x1f595&#x1f3fb'
p188
aS'&#x1f595&#x1f3fc'
p189
aS'&#x1f595&#x1f3fd'
p190
aS'&#x1f595&#x1f3fe'
p191
aS'&#x1f595&#x1f3ff'
p192
aS'&#x1f447&#x1f3fb'
p193
aS'&#x1f447&#x1f3fc'
p194
aS'&#x1f447&#x1f3fd'
p195
aS'&#x1f447&#x1f3fe'
p196
aS'&#x1f447&#x1f3ff'
p197
aS'&#x270c&#x1f3fb'
p198
aS'&#x270c&#x1f3fc'
p199
aS'&#x270c&#x1f3fd'
p200
aS'&#x270c&#x1f3fe'
p201
aS'&#x270c&#x1f3ff'
p202
aS'&#x1f596&#x1f3fb'
p203
aS'&#x1f596&#x1f3fc'
p204
aS'&#x1f596&#x1f3fd'
p205
aS'&#x1f596&#x1f3fe'
p206
aS'&#x1f596&#x1f3ff'
p207
aS'&#x1f918&#x1f3fb'
p208
aS'&#x1f918&#x1f3fc'
p209
aS'&#x1f918&#x1f3fd'
p210
aS'&#x1f918&#x1f3fe'
p211
aS'&#x1f918&#x1f3ff'
p212
aS'&#x1f590&#x1f3fb'
p213
aS'&#x1f590&#x1f3fc'
p214
aS'&#x1f590&#x1f3fd'
p215
aS'&#x1f590&#x1f3fe'
p216
aS'&#x1f590&#x1f3ff'
p217
aS'&#x270b&#x1f3fb'
p218
aS'&#x270b&#x1f3fc'
p219
aS'&#x270b&#x1f3fd'
p220
aS'&#x270b&#x1f3fe'
p221
aS'&#x270b&#x1f3ff'
p222
aS'&#x1f44c&#x1f3fb'
p223
aS'&#x1f44c&#x1f3fc'
p224
aS'&#x1f44c&#x1f3fd'
p225
aS'&#x1f44c&#x1f3fe'
p226
aS'&#x1f44c&#x1f3ff'
p227
aS'&#x1f44d&#x1f3fb'
p228
aS'&#x1f44d&#x1f3fc'
p229
aS'&#x1f44d&#x1f3fd'
p230
aS'&#x1f44d&#x1f3fe'
p231
aS'&#x1f44d&#x1f3ff'
p232
aS'&#x1f44e&#x1f3fb'
p233
aS'&#x1f44e&#x1f3fc'
p234
aS'&#x1f44e&#x1f3fd'
p235
aS'&#x1f44e&#x1f3fe'
p236
aS'&#x1f44e&#x1f3ff'
p237
aS'&#x270a&#x1f3fb'
p238
aS'&#x270a&#x1f3fc'
p239
aS'&#x270a&#x1f3fd'
p240
aS'&#x270a&#x1f3fe'
p241
aS'&#x270a&#x1f3ff'
p242
aS'&#x1f44a&#x1f3fb'
p243
aS'&#x1f44a&#x1f3fc'
p244
aS'&#x1f44a&#x1f3fd'
p245
aS'&#x1f44a&#x1f3fe'
p246
aS'&#x1f44a&#x1f3ff'
p247
aS'&#x1f44b&#x1f3fb'
p248
aS'&#x1f44b&#x1f3fc'
p249
aS'&#x1f44b&#x1f3fd'
p250
aS'&#x1f44b&#x1f3fe'
p251
aS'&#x1f44b&#x1f3ff'
p252
aS'&#x1f44f&#x1f3fb'
p253
aS'&#x1f44f&#x1f3fc'
p254
aS'&#x1f44f&#x1f3fd'
p255
aS'&#x1f44f&#x1f3fe'
p256
aS'&#x1f44f&#x1f3ff'
p257
aS'&#x1f450&#x1f3fb'
p258
aS'&#x1f450&#x1f3fc'
p259
aS'&#x1f450&#x1f3fd'
p260
aS'&#x1f450&#x1f3fe'
p261
aS'&#x1f450&#x1f3ff'
p262
aS'&#x270d&#x1f3fb'
p263
aS'&#x270d&#x1f3fc'
p264
aS'&#x270d&#x1f3fd'
p265
aS'&#x270d&#x1f3fe'
p266
aS'&#x270d&#x1f3ff'
p267
aS'&#x1f485&#x1f3fb'
p268
aS'&#x1f485&#x1f3fc'
p269
aS'&#x1f485&#x1f3fd'
p270
aS'&#x1f485&#x1f3fe'
p271
aS'&#x1f485&#x1f3ff'
p272
aS'&#x1f442&#x1f3fb'
p273
aS'&#x1f442&#x1f3fc'
p274
aS'&#x1f442&#x1f3fd'
p275
aS'&#x1f442&#x1f3fe'
p276
aS'&#x1f442&#x1f3ff'
p277
aS'&#x1f443&#x1f3fb'
p278
aS'&#x1f443&#x1f3fc'
p279
aS'&#x1f443&#x1f3fd'
p280
aS'&#x1f443&#x1f3fe'
p281
aS'&#x1f443&#x1f3ff'
p282
aS'&#x1f6a3&#x1f3fb'
p283
aS'&#x1f6a3&#x1f3fc'
p284
aS'&#x1f6a3&#x1f3fd'
p285
aS'&#x1f6a3&#x1f3fe'
p286
aS'&#x1f6a3&#x1f3ff'
p287
aS'&#x1f6c0&#x1f3fb'
p288
aS'&#x1f6c0&#x1f3fc'
p289
aS'&#x1f6c0&#x1f3fd'
p290
aS'&#x1f6c0&#x1f3fe'
p291
aS'&#x1f6c0&#x1f3ff'
p292
aS'&#x1f3c4&#x1f3fb'
p293
aS'&#x1f3c4&#x1f3fc'
p294
aS'&#x1f3c4&#x1f3fd'
p295
aS'&#x1f3c4&#x1f3fe'
p296
aS'&#x1f3c4&#x1f3ff'
p297
aS'&#x1f3ca&#x1f3fb'
p298
aS'&#x1f3ca&#x1f3fc'
p299
aS'&#x1f3ca&#x1f3fd'
p300
aS'&#x1f3ca&#x1f3fe'
p301
aS'&#x1f3ca&#x1f3ff'
p302
aS'&#x26f9&#x1f3fb'
p303
aS'&#x26f9&#x1f3fc'
p304
aS'&#x26f9&#x1f3fd'
p305
aS'&#x26f9&#x1f3fe'
p306
aS'&#x26f9&#x1f3ff'
p307
aS'&#x1f3cb&#x1f3fb'
p308
aS'&#x1f3cb&#x1f3fc'
p309
aS'&#x1f3cb&#x1f3fd'
p310
aS'&#x1f3cb&#x1f3fe'
p311
aS'&#x1f3cb&#x1f3ff'
p312
aS'&#x1f6b4&#x1f3fb'
p313
aS'&#x1f6b4&#x1f3fc'
p314
aS'&#x1f6b4&#x1f3fd'
p315
aS'&#x1f6b4&#x1f3fe'
p316
aS'&#x1f6b4&#x1f3ff'
p317
aS'&#x1f6b5&#x1f3fb'
p318
aS'&#x1f6b5&#x1f3fc'
p319
aS'&#x1f6b5&#x1f3fd'
p320
aS'&#x1f6b5&#x1f3fe'
p321
aS'&#x1f6b5&#x1f3ff'
p322
asVdown-pointing small red triangle\u224a down button
p323
(lp324
S'&#x1f53d'
p325
asVflag for svalbard & jan mayen
p326
(lp327
S'&#x1f1f8&#x1f1ef'
p328
asVladybird
p329
(lp330
S'&#x1f41e'
p331
asVyellow
p332
(lp333
S'&#x1f49b'
p334
aS'&#x1f530'
p335
asVfour
p336
(lp337
S'&#x1f340'
p338
aS'&#x1f553'
p339
aS'&#x1f55f'
p340
aS'&#x0034&#xfe0f&#x20e3'
p341
asVsleep
p342
(lp343
S'&#x1f62a'
p344
aS'&#x1f634'
p345
aS'&#x1f4a4'
p346
aS'&#x1f6cc'
p347
aS'&#x1f6cf'
p348
asVchart with upwards trend and yen sign\u224a chart increasing with yen
p349
(lp350
S'&#x1f4b9'
p351
asVflag for nauru
p352
(lp353
S'&#x1f1f3&#x1f1f7'
p354
asVcyprus
p355
(lp356
S'&#x1f1e8&#x1f1fe'
p357
asVtrolley
p358
(lp359
S'&#x1f68e'
p360
asVflag for anguilla
p361
(lp362
S'&#x1f1e6&#x1f1ee'
p363
asVelectricity
p364
(lp365
S'&#x26a1'
p366
aS'&#x1f50c'
p367
asVsmiling face with heart-shaped eyes
p368
(lp369
S'&#x1f60d'
p370
asVlion face
p371
(lp372
S'&#x1f981'
p373
asVdisappointed but relieved face
p374
(lp375
S'&#x1f625'
p376
asVbike
p377
(lp378
S'&#x1f6b2'
p379
aS'&#x1f6b4'
p380
aS'&#x1f6b5'
p381
aS'&#x1f6b3'
p382
asVtrousers
p383
(lp384
S'&#x1f456'
p385
asVrecycle
p386
(lp387
S'&#x267b'
p388
asVwhite small square
p389
(lp390
S'&#x25ab'
p391
asVsorry
p392
(lp393
S'&#x1f647'
p394
asVkeycap digit two
p395
(lp396
S'&#x0032&#xfe0f&#x20e3'
p397
asVflag for cayman islands
p398
(lp399
S'&#x1f1f0&#x1f1fe'
p400
asVrise
p401
(lp402
g351
asVguernsey
p403
(lp404
S'&#x1f1ec&#x1f1ec'
p405
asVisle of man
p406
(lp407
S'&#x1f1ee&#x1f1f2'
p408
asVconstruction worker
p409
(lp410
S'&#x1f477'
p411
ag58
ag59
ag60
ag61
ag62
asVjack
p412
(lp413
S'&#x1f383'
p414
asVconfetti
p415
(lp416
S'&#x1f38a'
p417
asVfork and knife with plate
p418
(lp419
S'&#x1f37d'
p420
asVchapel
p421
(lp422
S'&#x1f492'
p423
asVteacup without handle
p424
(lp425
S'&#x1f375'
p426
asVschool
p427
(lp428
S'&#x1f392'
p429
aS'&#x1f3eb'
p430
ag430
asVsuspension railway
p431
(lp432
S'&#x1f69f'
p433
asVprize
p434
(lp435
S'&#x1f3c6'
p436
asVsatchel
p437
(lp438
g429
asVlight rail
p439
(lp440
S'&#x1f688'
p441
asVconvenience
p442
(lp443
S'&#x1f3ea'
p444
asVsix pointed star with middle dot\u224a dotted six-pointed star
p445
(lp446
S'&#x1f52f'
p447
asVheavy plus sign
p448
(lp449
S'&#x2795'
p450
asVtriumph
p451
(lp452
S'&#x1f624'
p453
asVwhirlwind
p454
(lp455
S'&#x1f32a'
p456
asVjamaica
p457
(lp458
S'&#x1f1ef&#x1f1f2'
p459
asVlady beetle
p460
(lp461
g331
ag331
asVwhite medium small square\u224a white medium-small square
p462
(lp463
S'&#x25fd'
p464
asVbicycle
p465
(lp466
g379
ag379
ag380
ag381
ag382
asVtired
p467
(lp468
S'&#x1f62b'
p469
aS'&#x1f629'
p470
asVjapanese
p471
(lp472
S'&#x1f479'
p473
aS'&#x1f47a'
p474
aS'&#x1f359'
p475
aS'&#x1f361'
p476
aS'&#x1f3e3'
p477
aS'&#x1f3ef'
p478
aS'&#x1f38b'
p479
aS'&#x1f38d'
p480
aS'&#x1f38e'
p481
aS'&#x1f3b4'
p482
aS'&#x1f3ee'
p483
ag335
aS'&#x1f201'
p484
aS'&#x1f202'
p485
aS'&#x1f237'
p486
aS'&#x1f236'
p487
aS'&#x1f22f'
p488
aS'&#x1f250'
p489
aS'&#x1f239'
p490
aS'&#x1f21a'
p491
aS'&#x1f232'
p492
aS'&#x1f38c'
p493
asVhorn
p494
(lp495
S'&#x1f4ef'
p496
asVnail
p497
(lp498
S'&#x1f485'
p499
asVcactus
p500
(lp501
S'&#x1f335'
p502
ag502
asVpanda
p503
(lp504
S'&#x1f43c'
p505
asVshining
p506
(lp507
S'&#x1f31f'
p508
asVblue
p509
(lp510
S'&#x1f630'
p511
aS'&#x1f499'
p512
aS'&#x1f4d8'
p513
aS'&#x1f537'
p514
aS'&#x1f539'
p515
aS'&#x1f535'
p516
asVhelmet with white cross
p517
(lp518
S'&#x26d1'
p519
asVdesktop computer
p520
(lp521
S'&#x1f5a5'
p522
asVcamera with flash
p523
(lp524
S'&#x1f4f8'
p525
asVthunder
p526
(lp527
S'&#x26c8'
p528
asVpanama
p529
(lp530
S'&#x1f1f5&#x1f1e6'
p531
asVcooking
p532
(lp533
S'&#x1f373'
p534
ag534
ag420
aS'&#x1f374'
p535
aS'&#x1f52a'
p536
aS'&#x1f3fa'
p537
asVrevolver
p538
(lp539
S'&#x1f52b'
p540
asVasia
p541
(lp542
S'&#x1f30f'
p543
asVperson bowing deeply\u224a person bowing
p544
(lp545
g394
asVnew
p546
(lp547
S'&#x1f195'
p548
aS'&#x1f1f3&#x1f1e8'
p549
aS'&#x1f1f3&#x1f1ff'
p550
aS'&#x1f1f5&#x1f1ec'
p551
asVherb
p552
(lp553
S'&#x1f33f'
p554
ag554
asVstudio
p555
(lp556
S'&#x1f399'
p557
asVflag for swaziland
p558
(lp559
S'&#x1f1f8&#x1f1ff'
p560
asV100
p561
(lp562
S'&#x1f4af'
p563
asVmoyai\u224a moai
p564
(lp565
S'&#x1f5ff'
p566
asVcelebration
p567
(lp568
S'&#x1f385'
p569
aS'&#x1f64c'
p570
aS'&#x1f393'
p571
aS'&#x1f382'
p572
ag414
aS'&#x1f384'
p573
aS'&#x1f386'
p574
aS'&#x1f387'
p575
aS'&#x1f388'
p576
aS'&#x1f389'
p577
ag417
ag479
ag480
ag481
aS'&#x1f38f'
p578
aS'&#x1f390'
p579
aS'&#x1f391'
p580
aS'&#x1f380'
p581
aS'&#x1f381'
p582
aS'&#x1f397'
p583
aS'&#x1f396'
p584
ag493
asVflag for canada
p585
(lp586
S'&#x1f1e8&#x1f1e6'
p587
asVluggage
p588
(lp589
S'&#x1f6c5'
p590
asVflag for aruba
p591
(lp592
S'&#x1f1e6&#x1f1fc'
p593
asVoman
p594
(lp595
S'&#x1f1f4&#x1f1f2'
p596
asVcredit
p597
(lp598
S'&#x1f4b3'
p599
asVniue
p600
(lp601
S'&#x1f1f3&#x1f1fa'
p602
asVflag for botswana
p603
(lp604
S'&#x1f1e7&#x1f1fc'
p605
asVmilitary
p606
(lp607
g584
asVdrc
p608
(lp609
S'&#x1f1e8&#x1f1e9'
p610
asVsecure
p611
(lp612
S'&#x1f510'
p613
asVmyanmar
p614
(lp615
S'&#x1f1f2&#x1f1f2'
p616
asVok hand sign
p617
(lp618
g223
ag224
ag225
ag226
ag227
asVlavatory
p619
(lp620
S'&#x1f6b9'
p621
aS'&#x1f6ba'
p622
aS'&#x1f6bb'
p623
aS'&#x1f6be'
p624
asVlandscape
p625
(lp626
S'&#x1f306'
p627
asVflag for lebanon
p628
(lp629
S'&#x1f1f1&#x1f1e7'
p630
asVhospital
p631
(lp632
S'&#x1f3e5'
p633
ag633
asVqatar
p634
(lp635
S'&#x1f1f6&#x1f1e6'
p636
asVflag for guinea
p637
(lp638
S'&#x1f1ec&#x1f1f3'
p639
asVtm
p640
(lp641
S'&#x2122'
p642
asVcouple with heart: man
p643
(lp644
S'&#x1f468&#x200d&#x2764&#xfe0f&#x200d&#x1f468'
p645
asVpassport
p646
(lp647
S'&#x1f6c2'
p648
asVflag for wallis & futuna
p649
(lp650
S'&#x1f1fc&#x1f1eb'
p651
asVlorry
p652
(lp653
S'&#x1f69b'
p654
asVfried shrimp
p655
(lp656
S'&#x1f364'
p657
asVkeycap digit eight
p658
(lp659
S'&#x0038&#xfe0f&#x20e3'
p660
asVstraight edge
p661
(lp662
S'&#x1f4cf'
p663
asVhurt
p664
(lp665
S'&#x1f915'
p666
asVglass
p667
(lp668
S'&#x1f377'
p669
aS'&#x1f378'
p670
aS'&#x1f50d'
p671
aS'&#x1f50e'
p672
asVdeciduous
p673
(lp674
S'&#x1f333'
p675
asVface with open mouth and cold sweat
p676
(lp677
g511
asVhole
p678
(lp679
S'&#x1f573'
p680
ag680
aS'&#x26f3'
p681
asVhold
p682
(lp683
S'&#x1f46b'
p684
aS'&#x1f46c'
p685
aS'&#x1f46d'
p686
asVpouch
p687
(lp688
S'&#x1f45d'
p689
ag689
asVchequered
p690
(lp691
S'&#x1f3c1'
p692
asVtwo men holding hands
p693
(lp694
g685
asVword
p695
(lp696
g346
aS'&#x1f51e'
p697
aS'&#x203c'
p698
aS'&#x2049'
p699
aS'&#x2753'
p700
aS'&#x2754'
p701
aS'&#x2755'
p702
aS'&#x2757'
p703
aS'&#x00a9'
p704
aS'&#x00ae'
p705
ag642
aS'&#x0023&#xfe0f&#x20e3'
p706
aS'&#x0030&#xfe0f&#x20e3'
p707
aS'&#x0031&#xfe0f&#x20e3'
p708
ag397
aS'&#x0033&#xfe0f&#x20e3'
p709
ag341
aS'&#x0035&#xfe0f&#x20e3'
p710
aS'&#x0036&#xfe0f&#x20e3'
p711
aS'&#x0037&#xfe0f&#x20e3'
p712
ag660
aS'&#x0039&#xfe0f&#x20e3'
p713
aS'&#x1f51f'
p714
aS'&#x1f520'
p715
aS'&#x1f521'
p716
aS'&#x1f522'
p717
aS'&#x1f523'
p718
aS'&#x1f524'
p719
aS'&#x1f170'
p720
aS'&#x1f18e'
p721
aS'&#x1f171'
p722
aS'&#x1f191'
p723
aS'&#x1f192'
p724
aS'&#x1f193'
p725
aS'&#x2139'
p726
aS'&#x1f194'
p727
aS'&#x24c2'
p728
ag548
aS'&#x1f196'
p729
aS'&#x1f17e'
p730
aS'&#x1f197'
p731
aS'&#x1f17f'
p732
aS'&#x1f198'
p733
aS'&#x1f199'
p734
aS'&#x1f19a'
p735
ag484
ag485
ag486
ag487
ag488
ag489
ag490
ag491
ag492
aS'&#x1f251'
p736
aS'&#x1f238'
p737
aS'&#x1f234'
p738
aS'&#x1f233'
p739
aS'&#x3297'
p740
aS'&#x3299'
p741
aS'&#x1f23a'
p742
aS'&#x1f235'
p743
asVcross mark
p744
(lp745
S'&#x274c'
p746
asVblue book
p747
(lp748
g513
asVcandlestick
p749
(lp750
S'&#x1f54e'
p751
asVatom symbol
p752
(lp753
S'&#x269b'
p754
asVlocker
p755
(lp756
g590
asVeighteen
p757
(lp758
g697
asVwavy dash
p759
(lp760
S'&#x3030'
p761
asVgrenada
p762
(lp763
S'&#x1f1ec&#x1f1e9'
p764
asVpouting cat face
p765
(lp766
S'&#x1f63e'
p767
asVflag for norfolk island
p768
(lp769
S'&#x1f1f3&#x1f1eb'
p770
asVflag for barbados
p771
(lp772
S'&#x1f1e7&#x1f1e7'
p773
asVspeaking head in silhouette\u224a speaking head
p774
(lp775
S'&#x1f5e3'
p776
asVserpent
p777
(lp778
S'&#x1f40d'
p779
aS'&#x26ce'
p780
asVdividers
p781
(lp782
S'&#x1f5c2'
p783
asVdolphin
p784
(lp785
S'&#x1f42c'
p786
ag786
asVindia
p787
(lp788
S'&#x1f1ee&#x1f1f3'
p789
asVfax
p790
(lp791
S'&#x1f4e0'
p792
asVhoney
p793
(lp794
S'&#x1f36f'
p795
asVcurrency
p796
(lp797
S'&#x1f4b4'
p798
aS'&#x1f4b5'
p799
aS'&#x1f4b6'
p800
aS'&#x1f4b7'
p801
ag351
aS'&#x1f4b1'
p802
aS'&#x1f4b2'
p803
asVcandelabrum
p804
(lp805
g751
asVlitterbox
p806
(lp807
S'&#x1f6ae'
p808
asVuae
p809
(lp810
S'&#x1f1e6&#x1f1ea'
p811
asVrevolving hearts
p812
(lp813
S'&#x1f49e'
p814
asVceremony
p815
(lp816
g580
asVemoji modifier fitzpatrick type-5\u224a skin type-5
p817
(lp818
S'&#x1f3fe'
p819
asVsunrise over mountains
p820
(lp821
S'&#x1f304'
p822
asVend
p823
(lp824
S'&#x1f51a'
p825
asVlevel slider
p826
(lp827
S'&#x1f39a'
p828
asVdisappointed face
p829
(lp830
S'&#x1f61e'
p831
asVartist palette
p832
(lp833
S'&#x1f3a8'
p834
asVhot
p835
(lp836
S'&#x1f336'
p837
aS'&#x2615'
p838
aS'&#x2668'
p839
asVcat face
p840
(lp841
S'&#x1f431'
p842
asVyum
p843
(lp844
S'&#x1f60b'
p845
asVheavy heart exclamation mark ornament
p846
(lp847
S'&#x2763'
p848
asVbeach
p849
(lp850
S'&#x1f3d6'
p851
asVpizza
p852
(lp853
S'&#x1f355'
p854
asVflag for st. vincent & grenadines
p855
(lp856
S'&#x1f1fb&#x1f1e8'
p857
asVflag for antigua & barbuda
p858
(lp859
S'&#x1f1e6&#x1f1ec'
p860
asVbriefcase
p861
(lp862
S'&#x1f4bc'
p863
ag863
asVbeauty
p864
(lp865
S'&#x1f487'
p866
asVlower left ballpoint pen\u224a pen
p867
(lp868
S'&#x1f58a'
p869
asVcustoms
p870
(lp871
S'&#x1f6c3'
p872
ag872
asVheartpulse
p873
(lp874
S'&#x1f497'
p875
asVsparkles
p876
(lp877
S'&#x2728'
p878
asVmeridians
p879
(lp880
S'&#x1f310'
p881
asVfisted hand sign\u224a oncoming fist
p882
(lp883
S'&#x1f44a'
p884
asVwink
p885
(lp886
S'&#x1f609'
p887
aS'&#x1f61c'
p888
asVgreen
p889
(lp890
S'&#x1f49a'
p891
aS'&#x1f34f'
p892
aS'&#x1f4d7'
p893
ag335
asVambulance
p894
(lp895
S'&#x1f691'
p896
ag896
asVflag for burkina faso
p897
(lp898
S'&#x1f1e7&#x1f1eb'
p899
asVwind
p900
(lp901
S'&#x1f343'
p902
aS'&#x1f32c'
p903
ag579
asVwine
p904
(lp905
g669
asVsalon
p906
(lp907
S'&#x1f486'
p908
asVoffice
p909
(lp910
S'&#x1f3e2'
p911
ag477
aS'&#x1f3e4'
p912
aS'&#x1f5bc'
p913
aS'&#x1f4ba'
p914
aS'&#x260e'
p915
aS'&#x1f4df'
p916
ag792
aS'&#x1f4bb'
p917
ag522
aS'&#x1f5a8'
p918
aS'&#x1f5b1'
p919
aS'&#x1f5b2'
p920
aS'&#x1f4bd'
p921
aS'&#x1f4be'
p922
aS'&#x1f4bf'
p923
aS'&#x1f4c0'
p924
aS'&#x1f4e1'
p925
aS'&#x1f4d4'
p926
aS'&#x1f4d5'
p927
aS'&#x1f4d6'
p928
ag893
ag513
aS'&#x1f4d9'
p929
aS'&#x1f4da'
p930
aS'&#x1f4d3'
p931
aS'&#x1f4d2'
p932
aS'&#x1f4c3'
p933
aS'&#x1f4dc'
p934
aS'&#x1f4c4'
p935
aS'&#x1f4d1'
p936
aS'&#x1f4b0'
p937
ag798
ag799
ag800
ag801
aS'&#x1f4b8'
p938
ag599
ag351
ag802
ag803
aS'&#x2709'
p939
aS'&#x1f4e7'
p940
aS'&#x1f4e8'
p941
aS'&#x1f4e9'
p942
aS'&#x1f4e4'
p943
aS'&#x1f4e5'
p944
aS'&#x1f4e6'
p945
aS'&#x1f4eb'
p946
aS'&#x1f4ea'
p947
aS'&#x1f4ec'
p948
aS'&#x1f4ed'
p949
aS'&#x1f4ee'
p950
aS'&#x270f'
p951
aS'&#x2712'
p952
aS'&#x1f58b'
p953
ag869
aS'&#x1f58c'
p954
aS'&#x1f58d'
p955
aS'&#x1f4dd'
p956
ag863
aS'&#x1f4c1'
p957
aS'&#x1f4c2'
p958
ag783
aS'&#x1f4c5'
p959
aS'&#x1f4c6'
p960
aS'&#x1f5d2'
p961
aS'&#x1f5d3'
p962
aS'&#x1f4c7'
p963
aS'&#x1f4c8'
p964
aS'&#x1f4c9'
p965
aS'&#x1f4ca'
p966
aS'&#x1f4cb'
p967
aS'&#x1f4cc'
p968
aS'&#x1f4cd'
p969
aS'&#x1f4ce'
p970
aS'&#x1f587'
p971
ag663
aS'&#x1f4d0'
p972
aS'&#x2702'
p973
aS'&#x1f5c3'
p974
aS'&#x1f5c4'
p975
aS'&#x1f5d1'
p976
aS'&#x1f4db'
p977
ag563
asVclapper
p978
(lp979
S'&#x1f3ac'
p980
asVflag for namibia
p981
(lp982
S'&#x1f1f3&#x1f1e6'
p983
asVsatisfied
p984
(lp985
S'&#x1f606'
p986
asVkissing face
p987
(lp988
S'&#x1f617'
p989
asVseychelles
p990
(lp991
S'&#x1f1f8&#x1f1e8'
p992
asVflag for qatar
p993
(lp994
g636
asVpersevering face
p995
(lp996
S'&#x1f623'
p997
asVjapan
p998
(lp999
S'&#x1f5fe'
p1000
aS'&#x1f1ef&#x1f1f5'
p1001
asVwhite up pointing index\u224a index pointing up
p1002
(lp1003
S'&#x261d'
p1004
asVreceiver
p1005
(lp1006
S'&#x1f4de'
p1007
asVflag for dominican republic
p1008
(lp1009
S'&#x1f1e9&#x1f1f4'
p1010
asV2:00
p1011
(lp1012
S'&#x1f551'
p1013
asVrecreational
p1014
(lp1015
S'&#x1f699'
p1016
asVmoon viewing ceremony\u224a moon ceremony
p1017
(lp1018
g580
asVflag for ecuador
p1019
(lp1020
S'&#x1f1ea&#x1f1e8'
p1021
asVimp
p1022
(lp1023
S'&#x1f47f'
p1024
ag1024
asVpersonal computer\u224a laptop computer
p1025
(lp1026
g917
asVdesert island
p1027
(lp1028
S'&#x1f3dd'
p1029
asVnegative squared latin capital letter a\u224a a button
p1030
(lp1031
g720
asVperson raising both hands in celebration
p1032
(lp1033
g138
ag139
ag140
ag141
ag142
asVkuwait
p1034
(lp1035
S'&#x1f1f0&#x1f1fc'
p1036
asVversus
p1037
(lp1038
g735
asVkeycap digit five
p1039
(lp1040
g710
asVcoffee
p1041
(lp1042
g838
asVbelarus
p1043
(lp1044
S'&#x1f1e7&#x1f1fe'
p1045
asVtop with upwards arrow above\u224a top arrow
p1046
(lp1047
S'&#x1f51d'
p1048
asVbreak
p1049
(lp1050
S'&#x1f494'
p1051
asVroasted sweet potato
p1052
(lp1053
S'&#x1f360'
p1054
asVbaggage
p1055
(lp1056
S'&#x1f6c4'
p1057
ag590
asVmanicure
p1058
(lp1059
g499
asVwaning gibbous moon symbol\u224a waning gibbous moon
p1060
(lp1061
S'&#x1f316'
p1062
asVbank
p1063
(lp1064
S'&#x1f3e6'
p1065
ag1065
ag798
ag799
ag800
ag801
ag938
ag599
ag351
ag802
aS'&#x1f3e7'
p1066
asVbread
p1067
(lp1068
S'&#x1f35e'
p1069
ag1069
asVnetherlands
p1070
(lp1071
S'&#x1f1e7&#x1f1f6'
p1072
aS'&#x1f1f3&#x1f1f1'
p1073
asVinput symbol for numbers\u224a input numbers
p1074
(lp1075
g717
asVmeat
p1076
(lp1077
S'&#x1f356'
p1078
asVbosnia
p1079
(lp1080
S'&#x1f1e7&#x1f1e6'
p1081
asVbrightness
p1082
(lp1083
S'&#x1f505'
p1084
aS'&#x1f506'
p1085
asVcapricorn
p1086
(lp1087
S'&#x1f410'
p1088
aS'&#x2651'
p1089
ag1089
asVblack rightwards arrow\u224a right arrow
p1090
(lp1091
S'&#x27a1'
p1092
asVcongo
p1093
(lp1094
g610
aS'&#x1f1e8&#x1f1ec'
p1095
asVvictory
p1096
(lp1097
S'&#x270c'
p1098
asVarrow
p1099
(lp1100
S'&#x1f498'
p1101
aS'&#x1f4f2'
p1102
ag942
aS'&#x1f3f9'
p1103
aS'&#x2b06'
p1104
aS'&#x2197'
p1105
ag1092
aS'&#x2198'
p1106
aS'&#x2b07'
p1107
aS'&#x2199'
p1108
aS'&#x2b05'
p1109
aS'&#x2196'
p1110
aS'&#x2195'
p1111
aS'&#x2194'
p1112
aS'&#x21a9'
p1113
aS'&#x21aa'
p1114
aS'&#x2934'
p1115
aS'&#x2935'
p1116
aS'&#x1f503'
p1117
aS'&#x1f504'
p1118
aS'&#x1f519'
p1119
ag825
aS'&#x1f51b'
p1120
aS'&#x1f51c'
p1121
ag1048
aS'&#x1f500'
p1122
aS'&#x1f501'
p1123
aS'&#x1f502'
p1124
aS'&#x25b6'
p1125
aS'&#x23e9'
p1126
aS'&#x23ed'
p1127
aS'&#x23ef'
p1128
aS'&#x25c0'
p1129
aS'&#x23ea'
p1130
aS'&#x23ee'
p1131
aS'&#x1f53c'
p1132
aS'&#x23eb'
p1133
ag325
aS'&#x23ec'
p1134
asVvolcano
p1135
(lp1136
S'&#x1f30b'
p1137
ag1137
asVbone
p1138
(lp1139
g1078
aS'&#x1f357'
p1140
asVbasketball and hoop\u224a basketball
p1141
(lp1142
S'&#x1f3c0'
p1143
asVangola
p1144
(lp1145
S'&#x1f1e6&#x1f1f4'
p1146
asVtelescope
p1147
(lp1148
S'&#x1f52d'
p1149
ag1149
asVopen hands sign\u224a open hands
p1150
(lp1151
S'&#x1f450'
p1152
asVspider
p1153
(lp1154
S'&#x1f577'
p1155
ag1155
aS'&#x1f578'
p1156
asVclock face one oclock\u224a one o\u2019clock
p1157
(lp1158
S'&#x1f550'
p1159
asVsmiling face with open mouth
p1160
(lp1161
S'&#x1f603'
p1162
asVlifter
p1163
(lp1164
S'&#x1f3cb'
p1165
asVrv
p1166
(lp1167
g1016
asVideograph
p1168
(lp1169
g740
ag741
asVhushed
p1170
(lp1171
S'&#x1f62f'
p1172
asVcentral african republic
p1173
(lp1174
S'&#x1f1e8&#x1f1eb'
p1175
asVshinkansen
p1176
(lp1177
S'&#x1f684'
p1178
aS'&#x1f685'
p1179
asVmoney bag
p1180
(lp1181
g937
asVsparkle
p1182
(lp1183
S'&#x1f496'
p1184
ag508
ag575
ag878
aS'&#x2747'
p1185
ag1185
asVzap
p1186
(lp1187
g366
asVmedicine
p1188
(lp1189
S'&#x1f637'
p1190
ag633
aS'&#x1f489'
p1191
aS'&#x1f48a'
p1192
asVrevolving
p1193
(lp1194
g814
aS'&#x1f6a8'
p1195
asVvenezuela
p1196
(lp1197
S'&#x1f1fb&#x1f1ea'
p1198
asVarrow pointing rightwards then curving upwards\u224a right arrow curving up
p1199
(lp1200
g1115
asVbarrier
p1201
(lp1202
S'&#x1f6a7'
p1203
asVflag for mayotte
p1204
(lp1205
S'&#x1f1fe&#x1f1f9'
p1206
asVfree
p1207
(lp1208
g725
asVfour leaf clover
p1209
(lp1210
g338
asVevil
p1211
(lp1212
S'&#x1f648'
p1213
aS'&#x1f649'
p1214
aS'&#x1f64a'
p1215
asVgrapes
p1216
(lp1217
S'&#x1f347'
p1218
asVbiohazard sign\u224a biohazard
p1219
(lp1220
S'&#x2623'
p1221
asVlollipop
p1222
(lp1223
S'&#x1f36d'
p1224
ag1224
asVbirdie
p1225
(lp1226
S'&#x1f3f8'
p1227
asVflag for philippines
p1228
(lp1229
S'&#x1f1f5&#x1f1ed'
p1230
asVatm
p1231
(lp1232
g1066
asVface with ok gesture
p1233
(lp1234
g118
ag119
ag120
ag121
ag122
asVgambia
p1235
(lp1236
S'&#x1f1ec&#x1f1f2'
p1237
asVplaying card black joker\u224a joker
p1238
(lp1239
S'&#x1f0cf'
p1240
asVumbrella on ground
p1241
(lp1242
S'&#x26f1'
p1243
asVmalawi
p1244
(lp1245
S'&#x1f1f2&#x1f1fc'
p1246
asVflag for st. helena
p1247
(lp1248
S'&#x1f1f8&#x1f1ed'
p1249
asVloud
p1250
(lp1251
S'&#x1f50a'
p1252
aS'&#x1f4e2'
p1253
asVflag for lithuania
p1254
(lp1255
S'&#x1f1f1&#x1f1f9'
p1256
asVsuspension
p1257
(lp1258
g433
asVblack left-pointing double triangle with vertical bar\u224a last track button
p1259
(lp1260
g1131
asVhoop
p1261
(lp1262
g1143
asVsoccer ball
p1263
(lp1264
S'&#x26bd'
p1265
asVflag for british virgin islands
p1266
(lp1267
S'&#x1f1fb&#x1f1ec'
p1268
asVblack right-pointing triangle with double vertical bar\u224a play or pause button
p1269
(lp1270
g1128
asVfantasy
p1271
(lp1272
S'&#x1f607'
p1273
aS'&#x1f608'
p1274
ag1024
ag473
ag474
aS'&#x1f47b'
p1275
aS'&#x1f47d'
p1276
aS'&#x1f47e'
p1277
aS'&#x1f478'
p1278
ag569
aS'&#x1f47c'
p1279
aS'&#x1f52e'
p1280
asVflag for marshall islands
p1281
(lp1282
S'&#x1f1f2&#x1f1ed'
p1283
asVdelicious
p1284
(lp1285
g845
asVscissors
p1286
(lp1287
g973
asVcomic
p1288
(lp1289
S'&#x1f4a9'
p1290
aS'&#x1f4aa'
p1291
ag346
aS'&#x1f4a2'
p1292
aS'&#x1f4a3'
p1293
aS'&#x1f4a5'
p1294
aS'&#x1f4a6'
p1295
aS'&#x1f4a8'
p1296
aS'&#x1f4ab'
p1297
aS'&#x1f4ac'
p1298
aS'&#x1f4ad'
p1299
aS'&#x1f4a7'
p1300
aS'&#x1f4a1'
p1301
aS'&#x1f4a0'
p1302
asVantilles
p1303
(lp1304
S'&#x1f1e8&#x1f1fc'
p1305
asVbasketball
p1306
(lp1307
g1143
asVsquared sos
p1308
(lp1309
g733
asVtop
p1310
(lp1311
S'&#x1f3a9'
p1312
ag1048
asVflag for seychelles
p1313
(lp1314
g992
asVdizzy face
p1315
(lp1316
S'&#x1f635'
p1317
asVbactrian
p1318
(lp1319
S'&#x1f42b'
p1320
asVtwister
p1321
(lp1322
S'&#x1f300'
p1323
asVrailway car
p1324
(lp1325
S'&#x1f683'
p1326
asVemblem
p1327
(lp1328
S'&#x1f531'
p1329
asVswaziland
p1330
(lp1331
g560
asVtool
p1332
(lp1333
g536
ag537
aS'&#x2693'
p1334
aS'&#x1f525'
p1335
ag671
ag672
aS'&#x1f52c'
p1336
ag1149
aS'&#x1f526'
p1337
ag973
aS'&#x1f528'
p1338
aS'&#x26cf'
p1339
aS'&#x2692'
p1340
aS'&#x1f6e0'
p1341
ag540
ag1103
aS'&#x1f527'
p1342
aS'&#x1f529'
p1343
aS'&#x2699'
p1344
aS'&#x1f5dc'
p1345
aS'&#x2697'
p1346
aS'&#x2696'
p1347
ag1191
ag1280
ag335
ag1329
asVmoney with wings
p1348
(lp1349
g938
asVpalestine
p1350
(lp1351
S'&#x1f1f5&#x1f1f8'
p1352
asVbadminton racquet and shuttlecock\u224a badminton
p1353
(lp1354
g1227
asVperson bowing deeply
p1355
(lp1356
g133
ag134
ag135
ag136
ag137
asVweary face
p1357
(lp1358
g470
asVminibus
p1359
(lp1360
S'&#x1f690'
p1361
ag1361
asVflag for france
p1362
(lp1363
S'&#x1f1eb&#x1f1f7'
p1364
asVtarget
p1365
(lp1366
S'&#x1f3af'
p1367
asVwhite up pointing index
p1368
(lp1369
g178
ag179
ag180
ag181
ag182
asVhike
p1370
(lp1371
S'&#x1f6b6'
p1372
asVski and ski boot\u224a skis
p1373
(lp1374
S'&#x1f3bf'
p1375
asVtree
p1376
(lp1377
S'&#x1f332'
p1378
ag675
aS'&#x1f334'
p1379
ag573
ag479
asVfrench fries
p1380
(lp1381
S'&#x1f35f'
p1382
asVclock face two oclock\u224a two o\u2019clock
p1383
(lp1384
g1013
asVshower
p1385
(lp1386
S'&#x1f6bf'
p1387
ag1387
asVflag for iceland
p1388
(lp1389
S'&#x1f1ee&#x1f1f8'
p1390
asVsolomon
p1391
(lp1392
S'&#x1f1f8&#x1f1e7'
p1393
asVflame
p1394
(lp1395
g1335
asVmovie camera
p1396
(lp1397
S'&#x1f3a5'
p1398
asVletters
p1399
(lp1400
g715
ag716
ag719
asVminus
p1401
(lp1402
S'&#x2796'
p1403
asVbridge
p1404
(lp1405
S'&#x1f309'
p1406
asVhoney pot
p1407
(lp1408
g795
asVkaaba
p1409
(lp1410
S'&#x1f54b'
p1411
ag1411
asVrunner
p1412
(lp1413
S'&#x1f3c3'
p1414
ag1414
ag153
ag154
ag155
ag156
ag157
asVram
p1415
(lp1416
S'&#x1f40f'
p1417
ag1417
aS'&#x2648'
p1418
asVmining
p1419
(lp1420
g1339
asVrat
p1421
(lp1422
S'&#x1f400'
p1423
ag1423
asVpensive face
p1424
(lp1425
S'&#x1f614'
p1426
asVflag for poland
p1427
(lp1428
S'&#x1f1f5&#x1f1f1'
p1429
asVjapanese symbol for beginner
p1430
(lp1431
g335
asVbotswana
p1432
(lp1433
g605
asVspade
p1434
(lp1435
S'&#x2660'
p1436
asVwhite down pointing backhand index\u224a backhand index pointing down
p1437
(lp1438
S'&#x1f447'
p1439
asVdouble vertical bar\u224a pause button
p1440
(lp1441
S'&#x23f8'
p1442
asVnecktie
p1443
(lp1444
S'&#x1f454'
p1445
ag1445
asVsnow
p1446
(lp1447
S'&#x1f3d4'
p1448
aS'&#x1f328'
p1449
aS'&#x2744'
p1450
aS'&#x2603'
p1451
aS'&#x26c4'
p1452
ag1375
aS'&#x26f7'
p1453
aS'&#x1f3c2'
p1454
asVwater wave
p1455
(lp1456
S'&#x1f30a'
p1457
asVmonorail
p1458
(lp1459
S'&#x1f69d'
p1460
ag1460
asVfutuna
p1461
(lp1462
g651
asVleft luggage
p1463
(lp1464
g590
ag590
asVflag for guyana
p1465
(lp1466
S'&#x1f1ec&#x1f1fe'
p1467
asVflag for montenegro
p1468
(lp1469
S'&#x1f1f2&#x1f1ea'
p1470
asVsnowflake
p1471
(lp1472
g1450
ag1450
asVpaintbrush
p1473
(lp1474
g954
asVcrossbones
p1475
(lp1476
S'&#x2620'
p1477
asVkiss mark
p1478
(lp1479
S'&#x1f48b'
p1480
asVflag for lesotho
p1481
(lp1482
S'&#x1f1f1&#x1f1f8'
p1483
asVmaiden
p1484
(lp1485
S'&#x1f467'
p1486
aS'&#x264d'
p1487
asViceland
p1488
(lp1489
g1390
asVobject
p1490
(lp1491
g1290
aS'&#x1f49d'
p1492
ag1293
ag1295
ag1296
ag1298
ag1299
aS'&#x1f453'
p1493
aS'&#x1f576'
p1494
ag1445
aS'&#x1f455'
p1495
ag385
aS'&#x1f457'
p1496
aS'&#x1f458'
p1497
aS'&#x1f459'
p1498
aS'&#x1f45a'
p1499
aS'&#x1f45b'
p1500
aS'&#x1f45c'
p1501
ag689
aS'&#x1f6cd'
p1502
ag429
aS'&#x1f45e'
p1503
aS'&#x1f45f'
p1504
aS'&#x1f460'
p1505
aS'&#x1f461'
p1506
aS'&#x1f462'
p1507
aS'&#x1f451'
p1508
aS'&#x1f452'
p1509
ag1312
ag571
aS'&#x1f4ff'
p1510
aS'&#x1f484'
p1511
aS'&#x1f48d'
p1512
aS'&#x1f48e'
p1513
ag1155
ag1156
aS'&#x1f490'
p1514
aS'&#x1f4ae'
p1515
ag1218
aS'&#x1f348'
p1516
aS'&#x1f349'
p1517
aS'&#x1f34a'
p1518
aS'&#x1f34b'
p1519
aS'&#x1f34c'
p1520
aS'&#x1f34d'
p1521
aS'&#x1f34e'
p1522
ag892
aS'&#x1f350'
p1523
aS'&#x1f351'
p1524
aS'&#x1f352'
p1525
aS'&#x1f353'
p1526
aS'&#x1f345'
p1527
aS'&#x1f346'
p1528
aS'&#x1f33d'
p1529
ag1069
ag1078
ag1140
aS'&#x1f354'
p1530
ag1382
ag854
ag534
aS'&#x1f372'
p1531
aS'&#x1f371'
p1532
aS'&#x1f358'
p1533
ag475
aS'&#x1f35a'
p1534
aS'&#x1f35b'
p1535
aS'&#x1f35c'
p1536
aS'&#x1f35d'
p1537
ag1054
aS'&#x1f362'
p1538
aS'&#x1f363'
p1539
ag657
aS'&#x1f365'
p1540
ag476
aS'&#x1f366'
p1541
aS'&#x1f367'
p1542
aS'&#x1f368'
p1543
aS'&#x1f369'
p1544
aS'&#x1f36a'
p1545
ag572
aS'&#x1f370'
p1546
aS'&#x1f36b'
p1547
aS'&#x1f36c'
p1548
ag1224
aS'&#x1f36e'
p1549
ag795
aS'&#x1f37c'
p1550
ag838
ag426
aS'&#x1f376'
p1551
ag669
ag670
aS'&#x1f379'
p1552
aS'&#x1f37a'
p1553
aS'&#x1f37b'
p1554
ag420
ag535
ag536
aS'&#x26f2'
p1555
aS'&#x26fa'
p1556
aS'&#x1f3ad'
p1557
ag913
ag834
aS'&#x1f3b0'
p1558
ag914
aS'&#x1f6ce'
p1559
aS'&#x1f6aa'
p1560
ag347
ag348
aS'&#x1f6cb'
p1561
aS'&#x1f6bd'
p1562
ag1387
aS'&#x1f6c0'
p1563
aS'&#x1f6c1'
p1564
aS'&#x231b'
p1565
aS'&#x23f3'
p1566
aS'&#x231a'
p1567
aS'&#x23f0'
p1568
aS'&#x23f1'
p1569
aS'&#x23f2'
p1570
aS'&#x1f570'
p1571
ag508
aS'&#x2604'
p1572
ag1335
ag1300
ag414
ag573
ag574
ag575
ag878
ag576
ag577
ag417
ag479
ag480
ag481
ag578
ag579
ag580
ag581
ag582
ag583
aS'&#x1f39f'
p1573
aS'&#x1f3ab'
p1574
ag584
ag436
aS'&#x1f3c5'
p1575
ag1265
aS'&#x26be'
p1576
ag1143
aS'&#x1f3d0'
p1577
aS'&#x1f3c8'
p1578
aS'&#x1f3c9'
p1579
aS'&#x1f3be'
p1580
aS'&#x1f3b1'
p1581
aS'&#x1f3b3'
p1582
aS'&#x1f3cf'
p1583
aS'&#x1f3d1'
p1584
aS'&#x1f3d2'
p1585
aS'&#x1f3d3'
p1586
ag1227
ag681
aS'&#x1f3a3'
p1587
ag1375
ag1367
aS'&#x1f3ae'
p1588
aS'&#x1f579'
p1589
aS'&#x1f3b2'
p1590
ag1240
aS'&#x1f004'
p1591
ag482
aS'&#x1f507'
p1592
aS'&#x1f508'
p1593
aS'&#x1f509'
p1594
ag1252
ag1253
aS'&#x1f4e3'
p1595
ag496
aS'&#x1f514'
p1596
aS'&#x1f515'
p1597
aS'&#x1f3bc'
p1598
aS'&#x1f3b5'
p1599
aS'&#x1f3b6'
p1600
ag557
ag828
aS'&#x1f39b'
p1601
aS'&#x1f3a4'
p1602
aS'&#x1f3a7'
p1603
aS'&#x1f4fb'
p1604
aS'&#x1f3b7'
p1605
aS'&#x1f3b8'
p1606
aS'&#x1f3b9'
p1607
aS'&#x1f3ba'
p1608
aS'&#x1f3bb'
p1609
aS'&#x1f4f1'
p1610
ag1102
ag915
ag1007
ag916
ag792
aS'&#x1f50b'
p1611
ag367
ag917
ag522
ag918
aS'&#x2328'
p1612
ag919
ag920
ag921
ag922
ag923
ag924
ag1398
aS'&#x1f39e'
p1613
aS'&#x1f4fd'
p1614
ag980
aS'&#x1f4fa'
p1615
aS'&#x1f4f7'
p1616
ag525
aS'&#x1f4f9'
p1617
aS'&#x1f4fc'
p1618
ag671
ag672
ag1336
ag1149
ag925
aS'&#x1f56f'
p1619
ag1301
ag1337
ag926
ag927
ag928
ag893
ag513
ag929
ag930
ag931
ag932
ag933
ag934
ag935
aS'&#x1f4f0'
p1620
aS'&#x1f5de'
p1621
ag936
aS'&#x1f516'
p1622
aS'&#x1f3f7'
p1623
ag937
ag798
ag799
ag800
ag801
ag938
ag599
ag351
ag802
ag803
ag939
ag940
ag941
ag942
ag943
ag944
ag945
ag946
ag947
ag948
ag949
ag950
aS'&#x1f5f3'
p1624
ag951
ag952
ag953
ag869
ag954
ag955
ag956
ag863
ag957
ag958
ag783
ag959
ag960
ag961
ag962
ag963
ag964
ag965
ag966
ag967
ag968
ag969
ag970
ag971
ag663
ag972
ag973
ag974
ag975
ag976
aS'&#x1f512'
p1625
aS'&#x1f513'
p1626
aS'&#x1f50f'
p1627
ag613
aS'&#x1f511'
p1628
aS'&#x1f5dd'
p1629
ag1338
ag1339
ag1340
ag1341
aS'&#x1f5e1'
p1630
aS'&#x2694'
p1631
ag540
ag1103
aS'&#x1f6e1'
p1632
ag1342
ag1343
ag1344
ag1345
ag1346
ag1347
aS'&#x1f517'
p1633
aS'&#x26d3'
p1634
ag1191
ag1192
aS'&#x1f6ac'
p1635
aS'&#x26b0'
p1636
aS'&#x26b1'
p1637
aS'&#x1f6e2'
p1638
ag1280
aS'&#x1f4f5'
p1639
ag751
ag447
ag977
ag335
ag1329
aS'&#x1f3a6'
p1640
aS'&#x1f4f6'
p1641
aS'&#x1f4f3'
p1642
aS'&#x1f4f4'
p1643
ag692
aS'&#x1f6a9'
p1644
ag493
aS'&#x1f3f4'
p1645
aS'&#x1f3f3'
p1646
asVmouth
p1647
(lp1648
g1162
aS'&#x1f604'
p1649
ag986
aS'&#x1f636'
p1650
aS'&#x1f62e'
p1651
aS'&#x1f910'
p1652
aS'&#x1f911'
p1653
aS'&#x1f626'
p1654
ag511
aS'&#x1f63a'
p1655
aS'&#x1f444'
p1656
ag1656
asVletter
p1657
(lp1658
S'&#x1f48c'
p1659
ag940
ag941
ag942
ag943
ag944
asVcoin
p1660
(lp1661
g1500
asVglow
p1662
(lp1663
g508
asVclock face ten oclock\u224a ten o\u2019clock
p1664
(lp1665
S'&#x1f559'
p1666
asValarm
p1667
(lp1668
g1568
asVm
p1669
(lp1670
g728
asVdog
p1671
(lp1672
S'&#x1f436'
p1673
aS'&#x1f415'
p1674
ag1674
aS'&#x1f429'
p1675
asVnon-potable water symbol\u224a non-potable water
p1676
(lp1677
S'&#x1f6b1'
p1678
asVyang
p1679
(lp1680
S'&#x262f'
p1681
asVfamily: woman
p1682
(lp1683
S'&#x1f469&#x200d&#x1f469&#x200d&#x1f466'
p1684
aS'&#x1f469&#x200d&#x1f469&#x200d&#x1f467'
p1685
aS'&#x1f469&#x200d&#x1f469&#x200d&#x1f467&#x200d&#x1f466'
p1686
aS'&#x1f469&#x200d&#x1f469&#x200d&#x1f466&#x200d&#x1f466'
p1687
aS'&#x1f469&#x200d&#x1f469&#x200d&#x1f467&#x200d&#x1f467'
p1688
asVlove letter
p1689
(lp1690
g1659
asVscream
p1691
(lp1692
S'&#x1f631'
p1693
asVarmenia
p1694
(lp1695
S'&#x1f1e6&#x1f1f2'
p1696
asVeast timor
p1697
(lp1698
S'&#x1f1f9&#x1f1f1'
p1699
asVwheelchair symbol\u224a wheelchair
p1700
(lp1701
S'&#x267f'
p1702
asVbomb
p1703
(lp1704
g1293
ag1293
asVkeycap digit four
p1705
(lp1706
g341
asVqueen
p1707
(lp1708
g1508
asVsmirking face
p1709
(lp1710
S'&#x1f60f'
p1711
asVradio
p1712
(lp1713
g1604
ag1604
aS'&#x1f518'
p1714
asVliberty
p1715
(lp1716
S'&#x1f5fd'
p1717
asVclock face twelve-thirty\u224a twelve-thirty
p1718
(lp1719
S'&#x1f567'
p1720
asVinput symbol for latin small letters\u224a input latin lowercase
p1721
(lp1722
g716
asVearth
p1723
(lp1724
S'&#x1f30d'
p1725
aS'&#x1f30e'
p1726
ag543
ag881
asVfork and knife
p1727
(lp1728
g535
asVbus stop
p1729
(lp1730
S'&#x1f68f'
p1731
asVdagger knife\u224a dagger
p1732
(lp1733
g1630
asVinbox tray
p1734
(lp1735
g944
asVnortheast
p1736
(lp1737
g1105
asVvatican
p1738
(lp1739
S'&#x1f1fb&#x1f1e6'
p1740
asVfolded
p1741
(lp1742
S'&#x1f64f'
p1743
asVbust
p1744
(lp1745
S'&#x1f464'
p1746
aS'&#x1f465'
p1747
asVflag for brazil
p1748
(lp1749
S'&#x1f1e7&#x1f1f7'
p1750
asVzipper-mouth face
p1751
(lp1752
g1652
asVfolder
p1753
(lp1754
g957
ag958
asVrice
p1755
(lp1756
S'&#x1f33e'
p1757
ag1533
ag475
ag1534
ag1535
asVplace of worship
p1758
(lp1759
S'&#x1f6d0'
p1760
asVbahrain
p1761
(lp1762
S'&#x1f1e7&#x1f1ed'
p1763
asVplate
p1764
(lp1765
g420
asVsunglasses
p1766
(lp1767
S'&#x1f60e'
p1768
ag1494
asVstop
p1769
(lp1770
g1731
aS'&#x23f9'
p1771
asVsoon with rightwards arrow above\u224a soon arrow
p1772
(lp1773
g1121
asVgeek
p1774
(lp1775
S'&#x1f913'
p1776
asVguatemala
p1777
(lp1778
S'&#x1f1ec&#x1f1f9'
p1779
asVwatermelon
p1780
(lp1781
g1517
ag1517
asVwedding
p1782
(lp1783
S'&#x1f470'
p1784
ag423
ag423
asVfrying
p1785
(lp1786
g534
asVhaiti
p1787
(lp1788
S'&#x1f1ed&#x1f1f9'
p1789
asVpouting
p1790
(lp1791
S'&#x1f621'
p1792
ag767
aS'&#x1f64e'
p1793
asVbust in silhouette
p1794
(lp1795
g1746
asVbeads
p1796
(lp1797
g1510
asVbar
p1798
(lp1799
g1547
ag1551
aS'&#x1f37e'
p1800
ag669
ag670
ag1552
ag1553
ag1554
ag483
ag966
ag1442
ag1641
asVoncoming taxi
p1801
(lp1802
S'&#x1f696'
p1803
asVclock face twelve oclock\u224a twelve o\u2019clock
p1804
(lp1805
S'&#x1f55b'
p1806
asVflag for new caledonia
p1807
(lp1808
g549
asVbag
p1809
(lp1810
g1501
ag689
ag1502
ag429
ag937
asVmicroscope
p1811
(lp1812
g1336
ag1336
asVflag for bahrain
p1813
(lp1814
g1763
asVgrinning face with smiling eyes
p1815
(lp1816
S'&#x1f601'
p1817
asVfather christmas
p1818
(lp1819
g78
ag79
ag80
ag81
ag82
asVinterrobang
p1820
(lp1821
g699
asVsteam
p1822
(lp1823
S'&#x1f682'
p1824
asV3:00
p1825
(lp1826
S'&#x1f552'
p1827
asVsquared vs
p1828
(lp1829
g735
asVheavy black heart\u224a red heart
p1830
(lp1831
S'&#x2764'
p1832
asVnut
p1833
(lp1834
g1343
asVrunning shirt with sash\u224a running shirt
p1835
(lp1836
S'&#x1f3bd'
p1837
asVpolice cars revolving light\u224a police car\u2019s light
p1838
(lp1839
g1195
asVframe with picture
p1840
(lp1841
g913
asVhammer
p1842
(lp1843
g1338
ag1338
ag1340
ag1341
asVtaiwan
p1844
(lp1845
S'&#x1f1f9&#x1f1fc'
p1846
asVhourglass
p1847
(lp1848
g1565
ag1565
ag1566
asVbrazil
p1849
(lp1850
g1750
asV00
p1851
(lp1852
g1806
ag1159
ag1013
ag1827
ag339
aS'&#x1f554'
p1853
aS'&#x1f555'
p1854
aS'&#x1f556'
p1855
aS'&#x1f557'
p1856
aS'&#x1f558'
p1857
ag1666
aS'&#x1f55a'
p1858
asVdeadpan
p1859
(lp1860
S'&#x1f610'
p1861
asVpostbox
p1862
(lp1863
g946
ag947
ag948
ag949
ag950
ag950
asVkeycap digit seven
p1864
(lp1865
g712
asVshaved
p1866
(lp1867
g1542
asVmug
p1868
(lp1869
g1553
ag1554
asVscore
p1870
(lp1871
g1598
ag563
asVfinger
p1872
(lp1873
S'&#x1f448'
p1874
aS'&#x1f449'
p1875
ag1004
aS'&#x1f446'
p1876
aS'&#x1f595'
p1877
ag1439
aS'&#x1f596'
p1878
aS'&#x1f918'
p1879
aS'&#x1f590'
p1880
asVtropical drink
p1881
(lp1882
g1552
asVkeycap number sign\u224a keycap number
p1883
(lp1884
g706
asVwc
p1885
(lp1886
g621
ag622
ag623
ag624
asVthumbs up sign\u224a thumbs up
p1887
(lp1888
S'&#x1f44d'
p1889
asVnature
p1890
(lp1891
g1276
ag1277
ag1290
ag1655
aS'&#x1f638'
p1892
aS'&#x1f639'
p1893
aS'&#x1f63b'
p1894
aS'&#x1f63c'
p1895
aS'&#x1f63d'
p1896
aS'&#x1f640'
p1897
aS'&#x1f63f'
p1898
ag767
ag1213
ag1214
ag1215
aS'&#x1f435'
p1899
aS'&#x1f412'
p1900
ag1673
ag1674
ag1675
aS'&#x1f43a'
p1901
ag842
aS'&#x1f408'
p1902
ag373
aS'&#x1f42f'
p1903
aS'&#x1f405'
p1904
aS'&#x1f406'
p1905
aS'&#x1f434'
p1906
aS'&#x1f40e'
p1907
aS'&#x1f984'
p1908
aS'&#x1f42e'
p1909
aS'&#x1f402'
p1910
aS'&#x1f403'
p1911
aS'&#x1f404'
p1912
aS'&#x1f437'
p1913
aS'&#x1f416'
p1914
aS'&#x1f417'
p1915
aS'&#x1f43d'
p1916
ag1417
aS'&#x1f411'
p1917
ag1088
aS'&#x1f42a'
p1918
ag1320
aS'&#x1f418'
p1919
aS'&#x1f42d'
p1920
aS'&#x1f401'
p1921
ag1423
aS'&#x1f439'
p1922
aS'&#x1f430'
p1923
aS'&#x1f407'
p1924
aS'&#x1f43f'
p1925
aS'&#x1f43b'
p1926
aS'&#x1f428'
p1927
ag505
aS'&#x1f43e'
p1928
aS'&#x1f983'
p1929
aS'&#x1f414'
p1930
aS'&#x1f413'
p1931
aS'&#x1f423'
p1932
aS'&#x1f424'
p1933
aS'&#x1f425'
p1934
aS'&#x1f426'
p1935
aS'&#x1f427'
p1936
aS'&#x1f54a'
p1937
aS'&#x1f438'
p1938
aS'&#x1f40a'
p1939
aS'&#x1f422'
p1940
ag779
aS'&#x1f432'
p1941
aS'&#x1f409'
p1942
aS'&#x1f433'
p1943
aS'&#x1f40b'
p1944
ag786
aS'&#x1f41f'
p1945
aS'&#x1f420'
p1946
aS'&#x1f421'
p1947
aS'&#x1f419'
p1948
aS'&#x1f41a'
p1949
aS'&#x1f980'
p1950
aS'&#x1f40c'
p1951
aS'&#x1f41b'
p1952
aS'&#x1f41c'
p1953
aS'&#x1f41d'
p1954
ag331
aS'&#x1f982'
p1955
ag1514
aS'&#x1f338'
p1956
aS'&#x1f3f5'
p1957
aS'&#x1f339'
p1958
aS'&#x1f33a'
p1959
aS'&#x1f33b'
p1960
aS'&#x1f33c'
p1961
aS'&#x1f337'
p1962
aS'&#x1f331'
p1963
ag1378
ag675
ag1379
ag502
ag1757
ag554
aS'&#x2618'
p1964
ag338
aS'&#x1f341'
p1965
aS'&#x1f342'
p1966
ag902
ag1218
ag1516
ag1517
ag1518
ag1519
ag1520
ag1521
ag1522
ag892
ag1523
ag1524
ag1525
ag1526
ag1527
ag1528
ag1529
ag837
aS'&#x1f344'
p1967
aS'&#x1f330'
p1968
ag1069
aS'&#x1f9c0'
p1969
ag1078
ag1140
ag1530
ag1382
ag854
aS'&#x1f32d'
p1970
aS'&#x1f32e'
p1971
aS'&#x1f32f'
p1972
ag534
ag1531
aS'&#x1f37f'
p1973
ag1532
ag1533
ag475
ag1534
ag1535
ag1536
ag1537
ag1054
ag1538
ag1539
ag657
ag1540
ag476
ag1541
ag1542
ag1543
ag1544
ag1545
ag1546
ag1547
ag1548
ag1224
ag1549
ag795
ag1550
ag838
ag426
ag1551
ag1800
ag669
ag670
ag1552
ag1553
ag1554
ag535
ag537
ag1725
ag1726
ag543
ag881
ag1448
ag1137
aS'&#x1f5fb'
p1974
aS'&#x1f3d5'
p1975
ag851
aS'&#x1f3dc'
p1976
ag1029
aS'&#x1f3de'
p1977
aS'&#x1f301'
p1978
aS'&#x1f303'
p1979
ag822
aS'&#x1f305'
p1980
ag627
aS'&#x1f307'
p1981
ag1406
aS'&#x1f30c'
p1982
aS'&#x1f311'
p1983
aS'&#x1f312'
p1984
aS'&#x1f313'
p1985
aS'&#x1f314'
p1986
aS'&#x1f315'
p1987
ag1062
aS'&#x1f317'
p1988
aS'&#x1f318'
p1989
aS'&#x1f319'
p1990
aS'&#x1f31a'
p1991
aS'&#x1f31b'
p1992
aS'&#x1f31c'
p1993
aS'&#x1f321'
p1994
aS'&#x2600'
p1995
aS'&#x1f31d'
p1996
aS'&#x1f31e'
p1997
aS'&#x2b50'
p1998
aS'&#x1f320'
p1999
aS'&#x2601'
p2000
aS'&#x26c5'
p2001
ag528
aS'&#x1f324'
p2002
aS'&#x1f325'
p2003
aS'&#x1f326'
p2004
aS'&#x1f327'
p2005
ag1449
aS'&#x1f329'
p2006
ag456
aS'&#x1f32b'
p2007
ag903
ag1323
aS'&#x1f308'
p2008
aS'&#x1f302'
p2009
aS'&#x2602'
p2010
aS'&#x2614'
p2011
ag1243
ag366
ag1450
ag1451
ag1452
ag1300
ag1457
ag580
asVrolled
p2012
(lp2013
g1621
asVaquarius
p2014
(lp2015
g537
aS'&#x2652'
p2016
ag2016
asVweary
p2017
(lp2018
g470
ag1897
asVsoutheast
p2019
(lp2020
g1106
asVskull and crossbones
p2021
(lp2022
g1477
asVnews
p2023
(lp2024
g1620
ag1621
asVwallis
p2025
(lp2026
g651
asVroller
p2027
(lp2028
S'&#x1f3a2'
p2029
asVleftwards arrow with hook\u224a right arrow curving left
p2030
(lp2031
g1113
asVcop
p2032
(lp2033
S'&#x1f46e'
p2034
asVmans shoe\u224a man\u2019s shoe
p2035
(lp2036
g1503
asVtwo hearts
p2037
(lp2038
S'&#x1f495'
p2039
asVbhutan
p2040
(lp2041
S'&#x1f1e7&#x1f1f9'
p2042
asVcow
p2043
(lp2044
g1909
ag1912
ag1912
asVmayotte
p2045
(lp2046
g1206
asVjan mayen
p2047
(lp2048
g328
asVill
p2049
(lp2050
S'&#x1f912'
p2051
asVmacedonia
p2052
(lp2053
S'&#x1f1f2&#x1f1f0'
p2054
asVthree button mouse\u224a computer mouse
p2055
(lp2056
g919
asVflag for benin
p2057
(lp2058
S'&#x1f1e7&#x1f1ef'
p2059
asVcherry
p2060
(lp2061
g1956
ag1525
asVchina
p2062
(lp2063
S'&#x1f1e8&#x1f1f3'
p2064
aS'&#x1f1ed&#x1f1f0'
p2065
aS'&#x1f1f2&#x1f1f4'
p2066
ag1846
asVtone
p2067
(lp2068
S'&#x1f3fb'
p2069
aS'&#x1f3fc'
p2070
aS'&#x1f3fd'
p2071
ag819
aS'&#x1f3ff'
p2072
asVroller coaster
p2073
(lp2074
g2029
asVsilhouette of japan\u224a map of japan
p2075
(lp2076
g1000
asVsprings
p2077
(lp2078
g839
asVsun behind cloud
p2079
(lp2080
g2001
asVspeak
p2081
(lp2082
g1215
ag776
asVfallen leaf
p2083
(lp2084
g1966
asViraq
p2085
(lp2086
S'&#x1f1ee&#x1f1f6'
p2087
asVthree
p2088
(lp2089
g1827
aS'&#x1f55e'
p2090
ag1252
ag919
ag709
asVupside-down
p2091
(lp2092
S'&#x1f643'
p2093
asVbeer
p2094
(lp2095
g1553
ag1554
asVfairy tale
p2096
(lp2097
g1273
ag1274
ag1024
ag473
ag474
aS'&#x1f480'
p2098
ag1275
ag1276
ag1277
ag1278
ag569
ag1279
ag1941
ag1942
ag1280
asVflag for ascension island
p2099
(lp2100
S'&#x1f1e6&#x1f1e8'
p2101
asVstadium
p2102
(lp2103
S'&#x1f3df'
p2104
ag2104
asVmushroom
p2105
(lp2106
g1967
ag1967
asVworker
p2107
(lp2108
g411
asVtajikistan
p2109
(lp2110
S'&#x1f1f9&#x1f1ef'
p2111
asVkeycap ten
p2112
(lp2113
g714
asVvulcan
p2114
(lp2115
g1878
asVchile
p2116
(lp2117
S'&#x1f1e8&#x1f1f1'
p2118
asVchild
p2119
(lp2120
S'&#x1f46a'
p2121
aS'&#x1f6b8'
p2122
asVfield hockey stick and ball\u224a field hockey
p2123
(lp2124
g1584
asVdash
p2125
(lp2126
g1296
ag761
asVinformation desk person
p2127
(lp2128
S'&#x1f481'
p2129
ag123
ag124
ag125
ag126
ag127
asVleftwards black arrow\u224a left arrow
p2130
(lp2131
g1109
asVcracker
p2132
(lp2133
g1533
asVflag for eritrea
p2134
(lp2135
S'&#x1f1ea&#x1f1f7'
p2136
asVaid
p2137
(lp2138
g519
asVbalance
p2139
(lp2140
g1347
aS'&#x264e'
p2141
asVanchor
p2142
(lp2143
g1334
ag1334
ag1329
asVmusical note
p2144
(lp2145
g1599
asVseven
p2146
(lp2147
g1855
aS'&#x1f562'
p2148
ag712
asVstatue of liberty
p2149
(lp2150
g1717
asVcongratulation
p2151
(lp2152
g740
asVmexico
p2153
(lp2154
S'&#x1f1f2&#x1f1fd'
p2155
asVsushi
p2156
(lp2157
g1539
ag1539
asVcote ivoire
p2158
(lp2159
S'&#x1f1e8&#x1f1ee'
p2160
asVdizzy
p2161
(lp2162
g1317
ag1297
ag1323
asVolder woman\u224a old woman
p2163
(lp2164
S'&#x1f475'
p2165
asVviolin
p2166
(lp2167
g1609
ag1609
asVmouse
p2168
(lp2169
g1920
ag1921
ag1921
ag919
asVid
p2170
(lp2171
g727
asVno entry sign\u224a prohibited
p2172
(lp2173
S'&#x1f6ab'
p2174
asVearth globe americas\u224a globe showing americas
p2175
(lp2176
g1726
asVpunctuation
p2177
(lp2178
g848
ag698
ag699
ag700
ag701
ag702
ag703
ag761
asVflag for tanzania
p2179
(lp2180
S'&#x1f1f9&#x1f1ff'
p2181
asVface with medical mask
p2182
(lp2183
g1190
asVindian ocean
p2184
(lp2185
S'&#x1f1ee&#x1f1f4'
p2186
asVman with turban
p2187
(lp2188
S'&#x1f473'
p2189
ag53
ag54
ag55
ag56
ag57
asVvegetable
p2190
(lp2191
g1527
ag1528
asVbunny
p2192
(lp2193
S'&#x1f46f'
p2194
ag1923
ag1924
asVeuropean
p2195
(lp2196
g912
aS'&#x1f3f0'
p2197
asVwheel
p2198
(lp2199
S'&#x1f3a1'
p2200
aS'&#x2638'
p2201
asVslightly frowning face
p2202
(lp2203
S'&#x1f641'
p2204
asVsatellite
p2205
(lp2206
S'&#x1f6f0'
p2207
ag2207
ag925
asVnib
p2208
(lp2209
g952
ag1627
asVpick
p2210
(lp2211
g1339
ag1339
ag1340
asVrain
p2212
(lp2213
g528
ag2004
ag2005
ag2008
ag2009
ag2010
ag2011
ag1243
asVhand
p2214
(lp2215
S'&#x1f645'
p2216
aS'&#x1f646'
p2217
ag2129
aS'&#x1f64b'
p2218
ag570
ag1743
ag684
ag685
ag686
ag1874
ag1875
ag1004
ag1876
ag1877
ag1439
ag1098
ag1878
ag1879
ag1880
aS'&#x270b'
p2219
aS'&#x1f44c'
p2220
ag1889
aS'&#x1f44e'
p2221
aS'&#x270a'
p2222
ag884
aS'&#x1f44b'
p2223
aS'&#x1f44f'
p2224
ag1152
aS'&#x270d'
p2225
asVslovenia
p2226
(lp2227
S'&#x1f1f8&#x1f1ee'
p2228
asVunicorn
p2229
(lp2230
g1908
asVperson with ball
p2231
(lp2232
S'&#x26f9'
p2233
ag303
ag304
ag305
ag306
ag307
asVdominican republic
p2234
(lp2235
g1010
asVsmiling face with sunglasses
p2236
(lp2237
g1768
asVflag for mauritius
p2238
(lp2239
S'&#x1f1f2&#x1f1fa'
p2240
asVspiral shell
p2241
(lp2242
g1949
asVsquared katakana sa
p2243
(lp2244
g485
asVocean
p2245
(lp2246
g1457
asVtrade mark sign\u224a trade mark
p2247
(lp2248
g642
asVflag for angola
p2249
(lp2250
g1146
asVmother
p2251
(lp2252
g2121
asVhearts
p2253
(lp2254
S'&#x2665'
p2255
asVtype-1-2
p2256
(lp2257
g3
ag8
ag13
ag18
ag23
ag28
ag33
ag38
ag43
ag48
ag53
ag58
ag63
ag68
ag73
ag78
ag83
ag88
ag93
ag98
ag103
ag108
ag113
ag118
ag123
ag128
ag133
ag138
ag143
ag148
ag153
ag158
ag163
ag168
ag173
ag178
ag183
ag188
ag193
ag198
ag203
ag208
ag213
ag218
ag223
ag228
ag233
ag238
ag243
ag248
ag253
ag258
ag263
ag268
ag273
ag278
ag283
ag288
ag293
ag298
ag303
ag308
ag313
ag318
asVsnowman
p2258
(lp2259
g1451
ag1451
ag1452
asVhouse buildings
p2260
(lp2261
S'&#x1f3d8'
p2262
asVyen
p2263
(lp2264
g798
ag351
asVathletic
p2265
(lp2266
g1504
asVeight spoked asterisk\u224a eight-spoked asterisk
p2267
(lp2268
S'&#x2733'
p2269
asVdjibouti
p2270
(lp2271
S'&#x1f1e9&#x1f1ef'
p2272
asVthanks
p2273
(lp2274
g1743
asVheavy minus sign
p2275
(lp2276
g1403
asVupwards black arrow\u224a up arrow
p2277
(lp2278
g1104
asVhigh brightness symbol\u224a bright button
p2279
(lp2280
g1085
asVlower left fountain pen\u224a fountain pen
p2281
(lp2282
g953
asVsunflower
p2283
(lp2284
g1960
ag1960
asVvibration
p2285
(lp2286
g1642
asVscorpio
p2287
(lp2288
g1955
aS'&#x264f'
p2289
asV6:00
p2290
(lp2291
g1854
asVkissing face with closed eyes
p2292
(lp2293
S'&#x1f61a'
p2294
asVinnocent
p2295
(lp2296
g1273
asVsquared up with exclamation mark\u224a up! button
p2297
(lp2298
g734
asVeast
p2299
(lp2300
g1092
ag1699
asVhat
p2301
(lp2302
S'&#x1f472'
p2303
ag411
ag519
ag1509
ag1312
ag571
asVhigh-heeled shoe
p2304
(lp2305
g1505
asVclock face one-thirty\u224a one-thirty
p2306
(lp2307
S'&#x1f55c'
p2308
asVaubergine
p2309
(lp2310
g1528
asVflag for bosnia & herzegovina
p2311
(lp2312
g1081
asVeustatius
p2313
(lp2314
g1072
asVlinked paperclips
p2315
(lp2316
g971
asVhot pepper
p2317
(lp2318
g837
asVcape
p2319
(lp2320
S'&#x1f1e8&#x1f1fb'
p2321
asVflag for austria
p2322
(lp2323
S'&#x1f1e6&#x1f1f9'
p2324
asVgibbous
p2325
(lp2326
g1986
ag1062
asV12:30
p2327
(lp2328
g1720
asVgift
p2329
(lp2330
g582
asVspiral calendar pad\u224a spiral calendar
p2331
(lp2332
g962
asVperforming
p2333
(lp2334
g1557
asVspeaker with cancellation stroke\u224a speaker off
p2335
(lp2336
g1592
asVpolice car
p2337
(lp2338
S'&#x1f693'
p2339
asVbangbang
p2340
(lp2341
g698
asVofficer
p2342
(lp2343
g2034
asVnight
p2344
(lp2345
g1979
ag1406
asVsignal
p2346
(lp2347
S'&#x1f6a5'
p2348
aS'&#x1f6a6'
p2349
ag1641
asVeject symbol\u224a eject button
p2350
(lp2351
S'&#x23cf'
p2352
asVright
p2353
(lp2354
g1125
ag1128
asVold
p2355
(lp2356
S'&#x1f474'
p2357
ag2165
ag1629
asVflag for syria
p2358
(lp2359
S'&#x1f1f8&#x1f1fe'
p2360
asVkorea
p2361
(lp2362
S'&#x1f1f0&#x1f1f5'
p2363
aS'&#x1f1f0&#x1f1f7'
p2364
asVlower left paintbrush\u224a paintbrush
p2365
(lp2366
g954
asVcrown
p2367
(lp2368
g1508
ag1508
asVspouting whale
p2369
(lp2370
g1943
asVmalaysia
p2371
(lp2372
S'&#x1f1f2&#x1f1fe'
p2373
asVclubs
p2374
(lp2375
S'&#x2663'
p2376
asVarrivals
p2377
(lp2378
S'&#x1f6ec'
p2379
asVlatin cross
p2380
(lp2381
S'&#x271d'
p2382
asVnew zealand
p2383
(lp2384
g550
asVemoji modifier fitzpatrick type-6\u224a skin type-6
p2385
(lp2386
g2072
asVgrowing heart
p2387
(lp2388
g875
asVwaxing gibbous moon symbol\u224a waxing gibbous moon
p2389
(lp2390
g1986
asVpurple
p2391
(lp2392
S'&#x1f49c'
p2393
asVice
p2394
(lp2395
g1541
ag1542
ag1543
ag1585
aS'&#x26f8'
p2396
asVchocolate bar
p2397
(lp2398
g1547
asVfog
p2399
(lp2400
g1978
ag2007
ag2007
asVelectric plug
p2401
(lp2402
g367
asVhot springs
p2403
(lp2404
g839
asVtriangular flag on post\u224a triangular flag
p2405
(lp2406
g1644
asV3:30
p2407
(lp2408
g2090
asVbeating
p2409
(lp2410
S'&#x1f493'
p2411
asVchristmas
p2412
(lp2413
g569
ag573
aS'&#x1f1e8&#x1f1fd'
p2414
asVyin yang
p2415
(lp2416
g1681
asVcorn
p2417
(lp2418
g1529
asVclock face three-thirty\u224a three-thirty
p2419
(lp2420
g2090
asVcork
p2421
(lp2422
g1800
asVrolled-up newspaper
p2423
(lp2424
g1621
asVbolt
p2425
(lp2426
g1343
asVpost
p2427
(lp2428
g477
ag912
ag496
ag1644
asVsee-no-evil monkey\u224a see-no-evil
p2429
(lp2430
g1213
asVwhite right pointing backhand index
p2431
(lp2432
g173
ag174
ag175
ag176
ag177
asVflag for fiji
p2433
(lp2434
S'&#x1f1eb&#x1f1ef'
p2435
asVo
p2436
(lp2437
S'&#x2b55'
p2438
ag730
asVear of rice\u224a sheaf of rice
p2439
(lp2440
g1757
asVplus
p2441
(lp2442
g450
asVraised hand with part between middle and ring fingers\u224a vulcan salute
p2443
(lp2444
g1878
asVperson with pouting face\u224a person pouting
p2445
(lp2446
g1793
asVcurry
p2447
(lp2448
g1535
asValembic
p2449
(lp2450
g1346
ag1346
asVclockwise rightwards and leftwards open circle arrows with circled one overlay\u224a repeat single button
p2451
(lp2452
g1124
asVraised
p2453
(lp2454
g2218
ag570
asVsob
p2455
(lp2456
S'&#x1f62d'
p2457
asVflag for denmark
p2458
(lp2459
S'&#x1f1e9&#x1f1f0'
p2460
asVmarshall
p2461
(lp2462
g1283
asVtwo
p2463
(lp2464
g1013
aS'&#x1f55d'
p2465
ag397
asVdown
p2466
(lp2467
g1439
ag2221
ag942
ag965
ag1107
ag1116
ag325
ag1134
aS'&#x1f53b'
p2468
asVsos
p2469
(lp2470
g733
asVsquared cjk unified ideograph-6709\u224a squared exist ideograph
p2471
(lp2472
g487
asVsow
p2473
(lp2474
g1914
asVwheel of dharma
p2475
(lp2476
g2201
asVchime
p2477
(lp2478
g579
asVcompression
p2479
(lp2480
g1345
ag1345
asVastonished face
p2481
(lp2482
S'&#x1f632'
p2483
asVclock face seven oclock\u224a seven o\u2019clock
p2484
(lp2485
g1855
asVtennis
p2486
(lp2487
g1580
asVvirgin
p2488
(lp2489
g1486
ag1487
ag1268
aS'&#x1f1fb&#x1f1ee'
p2490
asVhot beverage
p2491
(lp2492
g838
asVsouth korea
p2493
(lp2494
g2364
asVbolivia
p2495
(lp2496
S'&#x1f1e7&#x1f1f4'
p2497
asVflag for cocos islands
p2498
(lp2499
S'&#x1f1e8&#x1f1e8'
p2500
asVhappy
p2501
(lp2502
g2218
asVfork
p2503
(lp2504
g420
ag535
asVhead
p2505
(lp2506
g776
asVsuriname
p2507
(lp2508
S'&#x1f1f8&#x1f1f7'
p2509
asVlower left crayon\u224a crayon
p2510
(lp2511
g955
asVfireworks
p2512
(lp2513
g574
ag574
ag575
asVlanding
p2514
(lp2515
g2379
asVpierre
p2516
(lp2517
S'&#x1f1f5&#x1f1f2'
p2518
asVflag for hong kong
p2519
(lp2520
g2065
asVverde
p2521
(lp2522
g2321
asVhear
p2523
(lp2524
g1214
asVastonished
p2525
(lp2526
g2483
asVradioactive
p2527
(lp2528
S'&#x2622'
p2529
asVcongratulations
p2530
(lp2531
g740
asVmegaphone
p2532
(lp2533
g1595
asVflag for honduras
p2534
(lp2535
S'&#x1f1ed&#x1f1f3'
p2536
asVinside
p2537
(lp2538
g1302
asVlitter
p2539
(lp2540
g808
aS'&#x1f6af'
p2541
asVhot dog
p2542
(lp2543
g1970
ag1970
asVblu-ray
p2544
(lp2545
g923
ag924
asVarrow pointing rightwards then curving downwards\u224a right arrow curving down
p2546
(lp2547
g1116
asVzodiac
p2548
(lp2549
g1486
ag685
ag373
ag1910
ag1417
ag1088
ag779
ag1945
ag1950
ag1955
ag537
ag1103
ag1347
ag1418
aS'&#x2649'
p2550
aS'&#x264a'
p2551
aS'&#x264b'
p2552
aS'&#x264c'
p2553
ag1487
ag2141
ag2289
aS'&#x2650'
p2554
ag1089
ag2016
aS'&#x2653'
p2555
ag780
asVnut and bolt
p2556
(lp2557
g1343
asVflag for palestinian territories
p2558
(lp2559
g1352
asVpassenger
p2560
(lp2561
S'&#x1f6f3'
p2562
asVoutbox tray
p2563
(lp2564
g943
asVestonia
p2565
(lp2566
S'&#x1f1ea&#x1f1ea'
p2567
asVumbrella with rain drops
p2568
(lp2569
g2011
asVgemini
p2570
(lp2571
g685
ag2551
ag2551
asVracing car
p2572
(lp2573
S'&#x1f3ce'
p2574
asVprayer
p2575
(lp2576
g1510
asVship
p2577
(lp2578
g1334
ag2562
aS'&#x1f6a2'
p2579
ag2579
ag1329
asVcheck
p2580
(lp2581
S'&#x2705'
p2582
aS'&#x2611'
p2583
aS'&#x2714'
p2584
asVkiss: man
p2585
(lp2586
S'&#x1f468&#x200d&#x2764&#xfe0f&#x200d&#x1f48b&#x200d&#x1f468'
p2587
asVflag for u.s. virgin islands
p2588
(lp2589
g2490
asVno
p2590
(lp2591
g1213
ag1214
ag1215
ag2216
ag1597
aS'&#x26d4'
p2592
ag2174
ag382
aS'&#x1f6ad'
p2593
ag2541
ag1678
aS'&#x1f6b7'
p2594
ag1639
ag697
asVfish cake with swirl design\u224a fish cake with swirl
p2595
(lp2596
g1540
asVcambodia
p2597
(lp2598
S'&#x1f1f0&#x1f1ed'
p2599
asVng
p2600
(lp2601
g729
asVshrine
p2602
(lp2603
S'&#x26e9'
p2604
asVrepublic
p2605
(lp2606
g610
ag1175
ag1095
asVwhew
p2607
(lp2608
g376
asVfalkland
p2609
(lp2610
S'&#x1f1eb&#x1f1f0'
p2611
asVflag for rwanda
p2612
(lp2613
S'&#x1f1f7&#x1f1fc'
p2614
asVevergreen
p2615
(lp2616
g1378
asVfull moon symbol\u224a full moon
p2617
(lp2618
g1987
asVthumbs up
p2619
(lp2620
g1889
asVcircled ideograph secret\u224a circled secret ideograph
p2621
(lp2622
g741
asVflag for kazakhstan
p2623
(lp2624
S'&#x1f1f0&#x1f1ff'
p2625
asVface with no good gesture
p2626
(lp2627
g113
ag114
ag115
ag116
ag117
asVfootball
p2628
(lp2629
g1578
ag1579
asVasterisk
p2630
(lp2631
g2269
aS'&#x002a&#xfe0f&#x20e3'
p2632
asVflag for papua new guinea
p2633
(lp2634
g551
asVtaurus
p2635
(lp2636
g1910
ag2550
ag2550
asVhigh-speed train
p2637
(lp2638
g1178
asVflag for argentina
p2639
(lp2640
S'&#x1f1e6&#x1f1f7'
p2641
asVrolling
p2642
(lp2643
S'&#x1f644'
p2644
asVwhite medium star
p2645
(lp2646
g1998
asVflushed
p2647
(lp2648
S'&#x1f633'
p2649
asVmount fuji
p2650
(lp2651
g1974
asVinput symbol for latin capital letters\u224a input latin uppercase
p2652
(lp2653
g715
asVblack diamond suit\u224a diamond suit
p2654
(lp2655
S'&#x2666'
p2656
asVbullet
p2657
(lp2658
g1179
asVpotato
p2659
(lp2660
g1054
asVcheering megaphone\u224a megaphone
p2661
(lp2662
g1595
asVyacht
p2663
(lp2664
S'&#x26f5'
p2665
asVfloppy disk
p2666
(lp2667
g922
asVceuta
p2668
(lp2669
S'&#x1f1ea&#x1f1e6'
p2670
asVvietnam
p2671
(lp2672
S'&#x1f1fb&#x1f1f3'
p2673
asVvideocassette
p2674
(lp2675
g1618
ag1618
asVtime
p2676
(lp2677
g822
ag1980
ag627
ag1981
ag1565
ag1566
ag1567
ag1568
ag1569
ag1570
ag1806
ag1720
ag1159
ag2308
ag1013
ag2465
ag1827
ag2090
ag339
ag340
ag1853
aS'&#x1f560'
p2678
ag1854
aS'&#x1f561'
p2679
ag1855
ag2148
ag1856
aS'&#x1f563'
p2680
ag1857
aS'&#x1f564'
p2681
ag1666
aS'&#x1f565'
p2682
ag1858
aS'&#x1f566'
p2683
ag1983
ag1984
ag1985
ag1986
ag1987
ag1062
ag1988
ag1989
ag1990
ag1991
ag1418
ag2550
ag2551
ag2552
ag2553
ag1487
ag2141
ag2289
ag2554
ag1089
ag2016
ag2555
asVpassenger ship
p2684
(lp2685
g2562
asVtear-off calendar
p2686
(lp2687
g960
asVend with leftwards arrow above\u224a end arrow
p2688
(lp2689
g825
asVflag for belize
p2690
(lp2691
S'&#x1f1e7&#x1f1ff'
p2692
asVchain
p2693
(lp2694
g1634
asVleft speech bubble
p2695
(lp2696
S'&#x1f5e8'
p2697
asVcrocodile
p2698
(lp2699
g1939
ag1939
asVskate
p2700
(lp2701
g2396
asVbangladesh
p2702
(lp2703
S'&#x1f1e7&#x1f1e9'
p2704
asVskin
p2705
(lp2706
g2069
ag2070
ag2071
ag819
ag2072
asVheavy check mark
p2707
(lp2708
g2584
asVchair
p2709
(lp2710
g914
asVmilk
p2711
(lp2712
g1550
asVgrape
p2713
(lp2714
g1218
asVblack heart suit\u224a heart suit
p2715
(lp2716
g2255
asVhump
p2717
(lp2718
g1918
ag1320
asVflash
p2719
(lp2720
g525
asVfather
p2721
(lp2722
g569
ag2121
asV0
p2723
(lp2724
g707
asVsmiling face with open mouth and tightly-closed eyes
p2725
(lp2726
g986
asVmelon
p2727
(lp2728
g1516
ag1516
asVsmiling face with open mouth and smiling eyes
p2729
(lp2730
g1649
asVsouthwest
p2731
(lp2732
g1108
asVpersevere
p2733
(lp2734
g997
asVdivision
p2735
(lp2736
S'&#x2797'
p2737
asVoil drum
p2738
(lp2739
g1638
asVtrident
p2740
(lp2741
g1329
asVsign of the horns
p2742
(lp2743
g1879
ag208
ag209
ag210
ag211
ag212
asVenvelope with downwards arrow above\u224a envelope with arrow
p2744
(lp2745
g942
asVpig nose
p2746
(lp2747
g1916
asVantenna with bars\u224a antenna bars
p2748
(lp2749
g1641
asVcook
p2750
(lp2751
S'&#x1f1e8&#x1f1f0'
p2752
asVcool
p2753
(lp2754
g1768
ag724
asVdim
p2755
(lp2756
g1084
asVbiceps
p2757
(lp2758
g1291
asVlevel
p2759
(lp2760
g828
asVtear
p2761
(lp2762
S'&#x1f602'
p2763
aS'&#x1f622'
p2764
ag2457
ag1893
ag1898
asVdie
p2765
(lp2766
g1590
asVphilippines
p2767
(lp2768
g1230
asVgun
p2769
(lp2770
g540
asVflag for congo - kinshasa
p2771
(lp2772
g610
asVhooray
p2773
(lp2774
g570
asVperson raising both hands in celebration\u224a person raising hands
p2775
(lp2776
g570
asVgrimace
p2777
(lp2778
S'&#x1f62c'
p2779
asVskewer
p2780
(lp2781
g1538
ag476
asVinformation source
p2782
(lp2783
g726
asVmali
p2784
(lp2785
S'&#x1f1f2&#x1f1f1'
p2786
asVtrend
p2787
(lp2788
g351
ag964
ag965
asVsign
p2789
(lp2790
g878
ag1066
aS'&#x1f6b0'
p2791
ag1702
ag621
ag622
ag623
aS'&#x1f6bc'
p2792
ag624
ag648
ag872
ag1057
ag590
ag2122
ag382
ag2593
ag2541
ag1678
ag2594
ag2529
ag1221
ag1681
aS'&#x262e'
p2793
ag388
ag2582
ag2583
ag2584
aS'&#x2716'
p2794
ag746
aS'&#x274e'
p2795
ag450
ag1403
ag2737
aS'&#x27b0'
p2796
aS'&#x27bf'
p2797
aS'&#x303d'
p2798
ag2269
aS'&#x2734'
p2799
ag1185
ag1084
ag1085
ag732
aS'&#x25aa'
p2800
ag391
aS'&#x25fb'
p2801
aS'&#x25fc'
p2802
ag464
aS'&#x25fe'
p2803
aS'&#x2b1b'
p2804
aS'&#x2b1c'
p2805
aS'&#x1f536'
p2806
ag514
aS'&#x1f538'
p2807
ag515
aS'&#x1f53a'
p2808
ag2468
ag1302
ag1714
aS'&#x1f532'
p2809
aS'&#x1f533'
p2810
aS'&#x26aa'
p2811
aS'&#x26ab'
p2812
aS'&#x1f534'
p2813
ag516
asVflag for kyrgyzstan
p2814
(lp2815
S'&#x1f1f0&#x1f1ec'
p2816
asVcrescent
p2817
(lp2818
g1984
ag1989
ag1990
asVfrankfurter
p2819
(lp2820
g1970
asVfear
p2821
(lp2822
S'&#x1f628'
p2823
ag1693
asVflag for clipperton island
p2824
(lp2825
S'&#x1f1e8&#x1f1f5'
p2826
asVafghanistan
p2827
(lp2828
S'&#x1f1e6&#x1f1eb'
p2829
asVhocho
p2830
(lp2831
g536
asVdromedary camel\u224a camel
p2832
(lp2833
g1918
asVextraterrestrial
p2834
(lp2835
g1276
ag1277
asVsomalia
p2836
(lp2837
S'&#x1f1f8&#x1f1f4'
p2838
asVpulsating
p2839
(lp2840
g2411
asVfalling
p2841
(lp2842
g1965
ag1966
ag1999
asVbadge
p2843
(lp2844
g977
asV1234
p2845
(lp2846
g717
asVblack universal recycling symbol\u224a recycling symbol
p2847
(lp2848
g388
asVflag for serbia
p2849
(lp2850
S'&#x1f1f7&#x1f1f8'
p2851
asVamphora
p2852
(lp2853
g537
ag537
asVfuneral
p2854
(lp2855
g1637
asVmuslim
p2856
(lp2857
S'&#x1f54c'
p2858
ag1411
aS'&#x262a'
p2859
asVfrench
p2860
(lp2861
g1382
aS'&#x1f1ec&#x1f1eb'
p2862
aS'&#x1f1f2&#x1f1eb'
p2863
aS'&#x1f1f5&#x1f1eb'
p2864
aS'&#x1f1f9&#x1f1eb'
p2865
asVwater
p2866
(lp2867
g1911
ag1387
ag1457
ag2791
ag624
ag1678
ag2016
asV2:30
p2868
(lp2869
g2465
asVbaseball
p2870
(lp2871
g1576
ag1576
asVconstruction sign\u224a construction
p2872
(lp2873
g1203
asVbox
p2874
(lp2875
g1532
ag582
ag943
ag944
ag945
ag1624
ag974
ag2583
asVboy
p2876
(lp2877
S'&#x1f466'
p2878
ag2878
ag3
ag4
ag5
ag6
ag7
aS'&#x1f468&#x200d&#x1f469&#x200d&#x1f466'
p2879
ag2879
aS'&#x1f468&#x200d&#x1f469&#x200d&#x1f467&#x200d&#x1f466'
p2880
ag2880
aS'&#x1f468&#x200d&#x1f469&#x200d&#x1f466&#x200d&#x1f466'
p2881
ag2881
ag2881
aS'&#x1f468&#x200d&#x1f468&#x200d&#x1f466'
p2882
ag2882
aS'&#x1f468&#x200d&#x1f468&#x200d&#x1f467&#x200d&#x1f466'
p2883
ag2883
aS'&#x1f468&#x200d&#x1f468&#x200d&#x1f466&#x200d&#x1f466'
p2884
ag2884
ag2884
ag1684
ag1684
ag1686
ag1686
ag1687
ag1687
ag1687
asVsleuth or spy\u224a detective
p2885
(lp2886
S'&#x1f575'
p2887
asVincoming
p2888
(lp2889
g941
asVstar and crescent
p2890
(lp2891
g2859
asVthirty
p2892
(lp2893
g1720
ag2308
ag2465
ag2090
ag340
ag2678
ag2679
ag2148
ag2680
ag2681
ag2682
ag2683
asVwhite left pointing backhand index\u224a backhand index pointing left
p2894
(lp2895
g1874
asVclock face six oclock\u224a six o\u2019clock
p2896
(lp2897
g1854
asVbow
p2898
(lp2899
g394
ag1743
ag1103
asVmauritius
p2900
(lp2901
g2240
asVnerd face
p2902
(lp2903
g1776
asVgreat britain
p2904
(lp2905
S'&#x1f1ec&#x1f1e7'
p2906
asVdarussalam
p2907
(lp2908
S'&#x1f1e7&#x1f1f3'
p2909
asVpotable
p2910
(lp2911
g2791
ag1678
asVbento box
p2912
(lp2913
g1532
asVstew
p2914
(lp2915
g1531
asVinexpressive
p2916
(lp2917
S'&#x1f611'
p2918
asVlove
p2919
(lp2920
g370
ag1894
aS'&#x1f491'
p2921
ag2039
ag1659
aS'&#x1f3e9'
p2922
asVkebab
p2923
(lp2924
g1538
asVearth globe asia-australia\u224a globe showing asia-australia
p2925
(lp2926
g543
asVice skate
p2927
(lp2928
g2396
asVflag for madagascar
p2929
(lp2930
S'&#x1f1f2&#x1f1ec'
p2931
asVmarker
p2932
(lp2933
g936
asVhouse building
p2934
(lp2935
S'&#x1f3e0'
p2936
asVmarket
p2937
(lp2938
g351
asVtrinidad
p2939
(lp2940
S'&#x1f1f9&#x1f1f9'
p2941
asVprojector
p2942
(lp2943
g1614
asVsake
p2944
(lp2945
g1551
asVconfounded
p2946
(lp2947
S'&#x1f616'
p2948
asVangry
p2949
(lp2950
g1792
aS'&#x1f620'
p2951
ag1292
aS'&#x1f5ef'
p2952
asVfrance
p2953
(lp2954
g1364
asVrecreational vehicle
p2955
(lp2956
g1016
asVperu
p2957
(lp2958
S'&#x1f1f5&#x1f1ea'
p2959
asVaries
p2960
(lp2961
g1417
ag1418
ag1418
asVmenorah with nine branches\u224a menorah
p2962
(lp2963
g751
asVtrophy
p2964
(lp2965
g436
ag436
asVguardsman
p2966
(lp2967
S'&#x1f482'
p2968
ag2968
ag68
ag69
ag70
ag71
ag72
asVflag for micronesia
p2969
(lp2970
S'&#x1f1eb&#x1f1f2'
p2971
asVwoman with bunny ears\u224a women partying
p2972
(lp2973
g2194
asVwaving hand sign\u224a waving hand
p2974
(lp2975
g2223
asVenvelope
p2976
(lp2977
g939
ag939
ag941
ag942
asVchocolate
p2978
(lp2979
g1547
asVblack club suit\u224a club suit
p2980
(lp2981
g2376
asVfly
p2982
(lp2983
g1937
ag938
asVlowercase
p2984
(lp2985
g716
asVflag for japan
p2986
(lp2987
g1001
asVsteaming bowl
p2988
(lp2989
g1536
asVtokyo
p2990
(lp2991
S'&#x1f5fc'
p2992
asVcar
p2993
(lp2994
g1326
aS'&#x1f69e'
p2995
aS'&#x1f68b'
p2996
ag2339
aS'&#x1f694'
p2997
aS'&#x1f697'
p2998
aS'&#x1f698'
p2999
ag1195
aS'&#x1f6a1'
p3000
ag2574
asVcap
p3001
(lp3002
g571
asVcat
p3003
(lp3004
g1655
ag1892
ag1893
ag1894
ag1895
ag1896
ag1897
ag1898
ag767
ag842
ag1902
ag1902
asVcocktail glass
p3005
(lp3006
g670
asVdiego garcia
p3007
(lp3008
S'&#x1f1e9&#x1f1ec'
p3009
asVgrowing
p3010
(lp3011
g875
asVferry
p3012
(lp3013
S'&#x26f4'
p3014
ag3014
asVclock face nine oclock\u224a nine o\u2019clock
p3015
(lp3016
g1857
asVguadeloupe
p3017
(lp3018
S'&#x1f1ec&#x1f1f5'
p3019
asVsouth sudan
p3020
(lp3021
S'&#x1f1f8&#x1f1f8'
p3022
asVspy
p3023
(lp3024
g2887
asVuruguay
p3025
(lp3026
S'&#x1f1fa&#x1f1fe'
p3027
asVconfused
p3028
(lp3029
S'&#x1f615'
p3030
asVheard
p3031
(lp3032
S'&#x1f1ed&#x1f1f2'
p3033
asVon with exclamation mark with left right arrow above\u224a on! arrow
p3034
(lp3035
g1120
asVdownwards black arrow\u224a down arrow
p3036
(lp3037
g1107
asVclothing
p3038
(lp3039
S'&#x1f463'
p3040
ag1493
ag1445
ag1495
ag385
ag1496
ag1497
ag1498
ag1499
ag1500
ag1501
ag689
ag1503
ag1504
ag1505
ag1506
ag1507
ag1508
ag1509
ag1312
ag571
ag1510
ag2009
ag2010
ag2011
asVrays
p3041
(lp3042
g1995
asVscorpius
p3043
(lp3044
g1955
ag2289
ag2289
asVsailboat
p3045
(lp3046
g2665
ag2665
asVflag for runion
p3047
(lp3048
S'&#x1f1f7&#x1f1ea'
p3049
asVpine
p3050
(lp3051
g480
asVwrite
p3052
(lp3053
g2225
asV7:00
p3054
(lp3055
g1855
asVcardinal
p3056
(lp3057
g1104
ag1092
ag1107
ag1109
asVshinto
p3058
(lp3059
g2604
asVemoji modifier fitzpatrick type-4\u224a skin type-4
p3060
(lp3061
g2071
asVcongo republic
p3062
(lp3063
g1095
asVgrinning cat face with smiling eyes
p3064
(lp3065
g1892
asVnevis
p3066
(lp3067
S'&#x1f1f0&#x1f1f3'
p3068
asVbottle with popping cork
p3069
(lp3070
g1800
asVmap
p3071
(lp3072
S'&#x1f5fa'
p3073
ag1000
asVcocktail
p3074
(lp3075
g670
asVwhite flower
p3076
(lp3077
g1515
asVmotorway
p3078
(lp3079
S'&#x1f6e3'
p3080
ag3080
asVpurple heart
p3081
(lp3082
g2393
asVbirthday
p3083
(lp3084
g572
asVmad
p3085
(lp3086
g1792
ag2951
ag1292
ag2952
asVtramway
p3087
(lp3088
g3000
asVdate
p3089
(lp3090
g959
asVhear-no-evil monkey\u224a hear-no-evil
p3091
(lp3092
g1214
asVleft right arrow\u224a left-right arrow
p3093
(lp3094
g1112
asVdove
p3095
(lp3096
g1937
asVflag for french polynesia
p3097
(lp3098
g2864
asVman
p3099
(lp3100
S'&#x1f468'
p3101
ag3101
ag13
ag14
ag15
ag16
ag17
ag2357
ag2303
ag2189
aS'&#x1f574'
p3102
ag684
ag685
aS'&#x1f469&#x200d&#x2764&#xfe0f&#x200d&#x1f48b&#x200d&#x1f468'
p3103
ag3103
ag2587
ag2587
aS'&#x1f469&#x200d&#x2764&#xfe0f&#x200d&#x1f468'
p3104
ag3104
ag645
ag645
ag2879
aS'&#x1f468&#x200d&#x1f469&#x200d&#x1f467'
p3105
ag2880
ag2881
aS'&#x1f468&#x200d&#x1f469&#x200d&#x1f467&#x200d&#x1f467'
p3106
ag2882
ag2882
aS'&#x1f468&#x200d&#x1f468&#x200d&#x1f467'
p3107
ag3107
ag2883
ag2883
ag2884
ag2884
aS'&#x1f468&#x200d&#x1f468&#x200d&#x1f467&#x200d&#x1f467'
p3108
ag3108
ag1503
ag621
asVsurfing
p3109
(lp3110
S'&#x1f3c4'
p3111
asVflag for gibraltar
p3112
(lp3113
S'&#x1f1ec&#x1f1ee'
p3114
asVoctopus
p3115
(lp3116
g1948
ag1948
asVwheelchair
p3117
(lp3118
g1702
asVclinking beer mugs
p3119
(lp3120
g1554
asVtruck
p3121
(lp3122
S'&#x1f692'
p3123
aS'&#x1f69a'
p3124
ag654
asVflag for belgium
p3125
(lp3126
S'&#x1f1e7&#x1f1ea'
p3127
asVtravel
p3128
(lp3129
g1824
ag1326
ag1178
ag1179
aS'&#x1f686'
p3130
aS'&#x1f687'
p3131
ag441
aS'&#x1f689'
p3132
aS'&#x1f68a'
p3133
ag1460
ag2995
ag2996
aS'&#x1f68c'
p3134
aS'&#x1f68d'
p3135
ag360
ag1731
ag1361
ag896
ag3123
ag2339
ag2997
aS'&#x1f695'
p3136
ag1803
ag2998
ag2999
ag1016
ag3124
ag654
aS'&#x1f69c'
p3137
ag379
aS'&#x26fd'
p3138
ag3080
aS'&#x1f6e4'
p3139
ag1195
ag2348
ag2349
ag1203
ag1334
ag2665
aS'&#x1f6a3'
p3140
aS'&#x1f6a4'
p3141
ag2562
ag3014
aS'&#x1f6e5'
p3142
ag2579
aS'&#x2708'
p3143
aS'&#x1f6e9'
p3144
aS'&#x1f6eb'
p3145
ag2379
ag914
aS'&#x1f681'
p3146
ag433
aS'&#x1f6a0'
p3147
ag3000
aS'&#x1f680'
p3148
ag1560
ag1562
ag1387
ag1563
ag1564
ag1243
ag681
ag2396
ag1453
aS'&#x1f3c7'
p3149
aS'&#x1f3ca'
p3150
ag2233
ag380
ag381
ag2574
aS'&#x1f3cd'
p3151
ag566
ag808
ag2791
ag1702
ag621
ag622
ag623
ag2792
ag624
ag648
ag872
ag1057
ag590
aS'&#x26a0'
p3152
ag2122
ag2592
ag2174
ag382
ag2593
ag2541
ag1678
ag2594
ag2438
ag1644
asVgesture
p3153
(lp3154
g1213
ag1214
ag1215
aS'&#x1f64d'
p3155
ag1793
ag2216
ag2217
ag2218
ag394
ag570
ag1743
asVright-pointing magnifying glass
p3156
(lp3157
g672
asVshield
p3158
(lp3159
g1632
ag1632
asVhaircut
p3160
(lp3161
g866
ag866
ag98
ag99
ag100
ag101
ag102
aS'&#x1f488'
p3162
asVup-pointing small red triangle\u224a up button
p3163
(lp3164
g1132
asVcanary
p3165
(lp3166
S'&#x1f1ee&#x1f1e8'
p3167
asVledger
p3168
(lp3169
g932
ag932
asVsake bottle and cup\u224a sake
p3170
(lp3171
g1551
asVcounterclockwise
p3172
(lp3173
g1118
asVeight pointed black star\u224a eight-pointed star
p3174
(lp3175
g2799
asVcold
p3176
(lp3177
S'&#x1f605'
p3178
aS'&#x1f613'
p3179
ag1190
ag511
ag1448
ag1449
ag1450
ag1451
ag1452
ag1300
asVworship
p3180
(lp3181
g1760
asVnegative squared latin capital letter p\u224a p button
p3182
(lp3183
g732
asVpolice
p3184
(lp3185
g2034
ag2339
ag2997
ag1195
asVthumb
p3186
(lp3187
g1889
ag2221
asVhandgun
p3188
(lp3189
g540
asVflag for guatemala
p3190
(lp3191
g1779
asVunited kingdom
p3192
(lp3193
g2906
asVmail
p3194
(lp3195
g1659
ag940
ag941
ag942
ag943
ag944
ag946
ag947
ag948
ag949
ag950
asVnorway
p3196
(lp3197
S'&#x1f1f3&#x1f1f4'
p3198
asVcircled latin capital letter m\u224a circled letter m
p3199
(lp3200
g728
asVbride with veil
p3201
(lp3202
g1784
ag83
ag84
ag85
ag86
ag87
asVraised hand with part between middle and ring fingers
p3203
(lp3204
g203
ag204
ag205
ag206
ag207
asVdirect hit
p3205
(lp3206
g1367
asVrewind
p3207
(lp3208
g1130
asVflag for egypt
p3209
(lp3210
S'&#x1f1ea&#x1f1ec'
p3211
asVcheese wedge
p3212
(lp3213
g1969
asVnot
p3214
(lp3215
g1213
ag1214
ag1215
ag2216
ag1597
ag2592
ag2174
ag382
ag2593
ag2541
ag1678
ag2594
ag1639
ag697
asVvideo camera
p3216
(lp3217
g1617
asVbath
p3218
(lp3219
g1563
ag288
ag289
ag290
ag291
ag292
ag1564
asVhalo
p3220
(lp3221
g1273
asVgrimacing face
p3222
(lp3223
g2779
asVname
p3224
(lp3225
g977
asVkissing cat face with closed eyes
p3226
(lp3227
g1896
asVdrop
p3228
(lp3229
g2011
ag1300
asVblack scissors\u224a scissors
p3230
(lp3231
g973
asVcheck-in
p3232
(lp3233
g3145
asVbowling
p3234
(lp3235
g1582
ag1582
asVsri lanka
p3236
(lp3237
S'&#x1f1f1&#x1f1f0'
p3238
asVbarbuda
p3239
(lp3240
g860
asVexpressionless face
p3241
(lp3242
g2918
asVlarge blue diamond
p3243
(lp3244
g514
asVnegative squared cross mark\u224a cross mark button
p3245
(lp3246
g2795
asVturtle
p3247
(lp3248
g1940
ag1940
asVtaoist
p3249
(lp3250
g1681
asVsquare
p3251
(lp3252
g2795
ag1771
ag2800
ag391
ag2801
ag2802
ag464
ag2803
ag2804
ag2805
ag2809
ag2810
asVhonduras
p3253
(lp3254
g2536
asVtiger face
p3255
(lp3256
g1903
asVlatin
p3257
(lp3258
g715
ag716
ag719
asVkeycap digit zero
p3259
(lp3260
g707
asVmotorboat
p3261
(lp3262
g3142
asVtorch
p3263
(lp3264
g1337
asVthumbs down sign
p3265
(lp3266
g233
ag234
ag235
ag236
ag237
asVunlock
p3267
(lp3268
g1626
asVrunion
p3269
(lp3270
g3049
asVbeetle
p3271
(lp3272
g331
asVaubergine\u224a eggplant
p3273
(lp3274
g1528
asVgirl
p3275
(lp3276
g1486
ag1486
ag8
ag9
ag10
ag11
ag12
ag2194
ag3105
ag3105
ag2880
ag2880
ag3106
ag3106
ag3106
ag3107
ag3107
ag2883
ag2883
ag3108
ag3108
ag3108
ag1685
ag1685
ag1686
ag1686
ag1688
ag1688
ag1688
asVmorning
p3277
(lp3278
g822
ag1980
asVsunrise
p3279
(lp3280
g822
ag1980
ag1980
asVcard index dividers
p3281
(lp3282
g783
asVwhite left pointing backhand index
p3283
(lp3284
g168
ag169
ag170
ag171
ag172
asVsquared id
p3285
(lp3286
g727
asVhappy person raising one hand
p3287
(lp3288
g128
ag129
ag130
ag131
ag132
asVspace
p3289
(lp3290
g1276
ag1277
ag1982
ag3148
ag2207
ag1983
ag1984
ag1985
ag1986
ag1987
ag1062
ag1988
ag1989
ag1990
ag1991
ag1992
ag1993
ag1995
ag1996
ag1997
ag1999
ag1572
asValarm clock
p3291
(lp3292
g1568
asVfactory
p3293
(lp3294
S'&#x1f3ed'
p3295
ag3295
asVclockwise rightwards and leftwards open circle arrows\u224a repeat button
p3296
(lp3297
g1123
asVblack down-pointing double triangle\u224a fast down button
p3298
(lp3299
g1134
asVnorthern ireland
p3300
(lp3301
g2906
asVthought balloon
p3302
(lp3303
g1299
asVclover
p3304
(lp3305
g338
asVmonster
p3306
(lp3307
g473
ag474
ag2098
ag1477
ag1275
ag1276
ag1277
aS'&#x1f916'
p3308
ag1290
asVtempura
p3309
(lp3310
g657
asVcarp
p3311
(lp3312
g578
asVflag for macedonia
p3313
(lp3314
g2054
asVflag for ukraine
p3315
(lp3316
S'&#x1f1fa&#x1f1e6'
p3317
asVcard
p3318
(lp3319
g1436
ag2255
ag2656
ag2376
ag1240
ag482
ag599
ag783
ag963
ag974
asVcare
p3320
(lp3321
g499
asVsmall blue diamond
p3322
(lp3323
g515
asVno pedestrians
p3324
(lp3325
g2594
asVwinking face
p3326
(lp3327
g887
asVbritish
p3328
(lp3329
g2906
ag2186
ag1268
asVmouse face
p3330
(lp3331
g1920
asVplace
p3332
(lp3333
g1907
ag1514
ag420
ag1725
ag1726
ag543
ag881
ag3073
ag1000
ag1448
aS'&#x26f0'
p3334
ag1137
ag1974
ag1975
ag851
ag1976
ag1029
ag1977
ag2104
aS'&#x1f3db'
p3335
aS'&#x1f3d7'
p3336
ag2262
aS'&#x1f3d9'
p3337
aS'&#x1f3da'
p3338
ag2936
aS'&#x1f3e1'
p3339
ag911
ag477
ag912
ag633
ag1065
aS'&#x1f3e8'
p3340
ag2922
ag444
ag430
aS'&#x1f3ec'
p3341
ag3295
ag478
ag2197
ag423
ag2992
ag1717
aS'&#x26ea'
p3342
ag2858
aS'&#x1f54d'
p3343
ag1411
ag1555
ag1556
ag1978
ag1979
ag822
ag1980
ag627
ag1981
ag1406
ag839
ag1982
aS'&#x1f3a0'
p3344
ag2200
ag2029
ag3162
aS'&#x1f3aa'
p3345
ag1557
ag1558
ag1824
ag1326
ag1178
ag1179
ag3130
ag3131
ag441
ag3132
ag3133
ag1460
ag2995
ag2996
ag3134
ag3135
ag360
ag1731
ag1361
ag896
ag3123
ag2339
ag2997
ag3136
ag1803
ag2998
ag2999
ag1016
ag3124
ag654
ag3137
ag379
ag3138
ag3080
ag3139
ag1195
ag2348
ag2349
ag1203
ag1334
ag2665
ag3140
ag3141
ag2562
ag3014
ag3142
ag2579
ag3143
ag3144
ag3145
ag2379
ag914
ag3146
ag433
ag3147
ag3000
ag3148
ag2207
ag1562
ag1387
ag1563
ag1564
ag1983
ag1984
ag1985
ag1986
ag1987
ag1062
ag1988
ag1989
ag1990
ag1991
ag1992
ag1993
ag1996
ag1997
ag1998
ag508
ag1999
ag1457
ag1574
ag436
ag1265
ag1576
ag1143
ag1578
ag1579
ag1580
ag1581
ag1582
ag681
ag2396
ag1587
ag1837
ag380
ag381
ag2574
ag483
ag969
ag566
ag1066
ag808
ag624
ag648
ag872
ag1057
ag590
ag3152
ag2122
ag382
ag2594
ag1760
ag751
ag728
ag732
ag692
ag1644
asVpaw prints
p3346
(lp3347
g1928
asVbulgaria
p3348
(lp3349
S'&#x1f1e7&#x1f1ec'
p3350
asVemotion
p3351
(lp3352
g1480
ag1101
ag1832
ag2411
ag1051
ag2039
ag1184
ag875
ag512
ag891
ag334
ag2393
ag1492
ag814
aS'&#x1f49f'
p3353
ag848
ag1659
ag346
ag1292
ag1294
ag1295
ag1296
ag1297
ag1298
ag2952
ag1299
ag1512
ag1513
ag1300
ag878
ag581
ag2255
asVcheese
p3354
(lp3355
g1969
ag854
asVballpoint
p3356
(lp3357
g869
asVcouch and lamp
p3358
(lp3359
g1561
asVophiuchus
p3360
(lp3361
g779
ag780
ag780
asVdash symbol\u224a dashing
p3362
(lp3363
g1296
asVdouble curly loop
p3364
(lp3365
g2797
asVrailway track
p3366
(lp3367
g3139
asVsleeping symbol\u224a zzz
p3368
(lp3369
g346
asVclock face eleven-thirty\u224a eleven-thirty
p3370
(lp3371
g2683
asVone
p3372
(lp3373
g1159
ag2308
ag708
asVflag for guernsey
p3374
(lp3375
g405
asVnegative squared latin capital letter o\u224a o button
p3376
(lp3377
g730
asVring
p3378
(lp3379
g1512
ag1512
asVopen
p3380
(lp3381
g1162
ag1649
ag3178
ag986
ag1651
ag1654
ag511
ag1655
ag1152
ag928
ag948
ag949
ag958
ag1626
asVflag for jamaica
p3382
(lp3383
g459
asVtram car
p3384
(lp3385
g2996
asVslightly smiling face
p3386
(lp3387
S'&#x1f642'
p3388
asVsheep
p3389
(lp3390
g1417
ag1917
ag1917
asVcity
p3391
(lp3392
g3337
ag627
asVsilent
p3393
(lp3394
g1650
ag1592
ag1597
asVthinking face
p3395
(lp3396
S'&#x1f914'
p3397
asVoptical disc
p3398
(lp3399
g923
asVbookmark
p3400
(lp3401
g936
ag1622
ag1622
asVyin
p3402
(lp3403
g1681
asVizakaya lantern\u224a red paper lantern
p3404
(lp3405
g483
asVbahamas
p3406
(lp3407
S'&#x1f1e7&#x1f1f8'
p3408
asV2
p3409
(lp3410
g1013
ag2465
ag397
asVcarousel
p3411
(lp3412
g3344
asVwhite sun with small cloud\u224a sun behind small cloud
p3413
(lp3414
g2002
asVanguilla
p3415
(lp3416
g363
asVfaroe
p3417
(lp3418
S'&#x1f1eb&#x1f1f4'
p3419
asVspeaking
p3420
(lp3421
g776
asVweight lifter
p3422
(lp3423
g1165
ag308
ag309
ag310
ag311
ag312
asVeyes
p3424
(lp3425
g2644
aS'&#x1f440'
p3426
asVhug
p3427
(lp3428
S'&#x1f917'
p3429
asVglobe with meridians
p3430
(lp3431
g881
asVfloppy
p3432
(lp3433
g922
asVmemo
p3434
(lp3435
g956
ag956
asVmontenegro
p3436
(lp3437
g1470
asVcornwall
p3438
(lp3439
g2906
asVwomens symbol\u224a women\u2019s room
p3440
(lp3441
g622
asVheavy division sign
p3442
(lp3443
g2737
asV11
p3444
(lp3445
g1858
ag2683
asV10
p3446
(lp3447
g1666
ag2682
ag714
asVtelevision
p3448
(lp3449
g1615
ag1615
asV12
p3450
(lp3451
g1806
ag1720
asV18
p3452
(lp3453
g697
asVbiohazard
p3454
(lp3455
g1221
asV10:00
p3456
(lp3457
g1666
asVathletic shoe\u224a running shoe
p3458
(lp3459
g1504
asVtired face
p3460
(lp3461
g469
asVtophat
p3462
(lp3463
g1312
asVrussia
p3464
(lp3465
S'&#x1f1f7&#x1f1fa'
p3466
asVtractor
p3467
(lp3468
g3137
ag3137
asVangel
p3469
(lp3470
g1273
ag1279
asVgreece
p3471
(lp3472
S'&#x1f1ec&#x1f1f7'
p3473
asVsan marino
p3474
(lp3475
S'&#x1f1f8&#x1f1f2'
p3476
asVsad
p3477
(lp3478
g2764
ag2457
ag1898
asVant
p3479
(lp3480
g1953
ag1953
asVsax
p3481
(lp3482
g1605
asVpastry
p3483
(lp3484
g1540
ag572
ag1546
asVflag for pitcairn islands
p3485
(lp3486
S'&#x1f1f5&#x1f1f3'
p3487
asVburundi
p3488
(lp3489
S'&#x1f1e7&#x1f1ee'
p3490
asVromania
p3491
(lp3492
S'&#x1f1f7&#x1f1f4'
p3493
asVvertical traffic light
p3494
(lp3495
g2349
asVmarathon
p3496
(lp3497
g1414
asVsilhouette
p3498
(lp3499
g776
ag1746
ag1747
asVtulip
p3500
(lp3501
g1962
ag1962
asVshocked
p3502
(lp3503
g2483
asVflag for french southern territories
p3504
(lp3505
g2865
asVnote
p3506
(lp3507
g1599
ag1600
ag798
ag799
ag800
ag801
ag938
ag961
asVpalm tree
p3508
(lp3509
g1379
asVthermometer
p3510
(lp3511
g2051
ag1994
ag1994
asVintercardinal
p3512
(lp3513
g1105
ag1106
ag1108
ag1110
asVregistered
p3514
(lp3515
g705
asVclock face three oclock\u224a three o\u2019clock
p3516
(lp3517
g1827
asVbenin
p3518
(lp3519
g2059
asVbirthday cake
p3520
(lp3521
g572
asVfilm projector
p3522
(lp3523
g1614
asVprinter
p3524
(lp3525
g918
ag918
asVtheatre
p3526
(lp3527
g1557
asVtornado
p3528
(lp3529
g456
asVunexpressive
p3530
(lp3531
g2918
asVsquared cjk unified ideograph-55b6\u224a squared operating ideograph
p3532
(lp3533
g742
asVflag for switzerland
p3534
(lp3535
S'&#x1f1e8&#x1f1ed'
p3536
asVflag for north korea
p3537
(lp3538
g2363
asVsquared cjk unified ideograph-7a7a\u224a squared empty ideograph
p3539
(lp3540
g739
asVmultiply
p3541
(lp3542
g2794
ag746
asVamerica
p3543
(lp3544
S'&#x1f1fa&#x1f1f2'
p3545
aS'&#x1f1fa&#x1f1f8'
p3546
ag2490
asVpager
p3547
(lp3548
g916
ag916
asVluxembourg
p3549
(lp3550
S'&#x1f1f1&#x1f1fa'
p3551
asVfather christmas\u224a santa claus
p3552
(lp3553
g569
asVlove hotel
p3554
(lp3555
g2922
asVturks
p3556
(lp3557
S'&#x1f1f9&#x1f1e8'
p3558
asVice hockey stick and puck
p3559
(lp3560
g1585
asVseafood
p3561
(lp3562
g1538
asVclosed book
p3563
(lp3564
g927
asVcircled ideograph congratulation\u224a circled congratulate ideograph
p3565
(lp3566
g740
asVsunset
p3567
(lp3568
g627
ag1981
asVsmall airplane
p3569
(lp3570
g3144
asVflag for tokelau
p3571
(lp3572
S'&#x1f1f9&#x1f1f0'
p3573
asV7:30
p3574
(lp3575
g2148
asVdetective
p3576
(lp3577
g2887
asVwalking
p3578
(lp3579
g1372
asVwithershins
p3580
(lp3581
g1118
asVshot
p3582
(lp3583
g1191
asVsteam locomotive\u224a locomotive
p3584
(lp3585
g1824
asVatom
p3586
(lp3587
g754
asVbright
p3588
(lp3589
g1768
ag1995
ag1996
ag1997
ag1085
asVshoe
p3590
(lp3591
g1503
ag1504
ag1505
ag1506
ag1507
asVpanda face
p3592
(lp3593
g505
asVface with stuck-out tongue and tightly-closed eyes
p3594
(lp3595
S'&#x1f61d'
p3596
asVslot
p3597
(lp3598
g1558
asVdice
p3599
(lp3600
g1590
asVbanknote with pound sign\u224a pound banknote
p3601
(lp3602
g801
asVpump
p3603
(lp3604
g3138
asVhockey
p3605
(lp3606
g1584
ag1585
asVgem stone
p3607
(lp3608
g1513
asVkeycap digit three
p3609
(lp3610
g709
asVbissau
p3611
(lp3612
S'&#x1f1ec&#x1f1fc'
p3613
asVwaving hand sign
p3614
(lp3615
g248
ag249
ag250
ag251
ag252
asVflag for kuwait
p3616
(lp3617
g1036
asVflag for montserrat
p3618
(lp3619
S'&#x1f1f2&#x1f1f8'
p3620
asVdove of peace\u224a dove
p3621
(lp3622
g1937
asVazerbaijan
p3623
(lp3624
S'&#x1f1e6&#x1f1ff'
p3625
asVspeak-no-evil monkey\u224a speak-no-evil
p3626
(lp3627
g1215
asVspeaker with three sound waves\u224a speaker loud
p3628
(lp3629
g1252
asVflag for land islands
p3630
(lp3631
S'&#x1f1e6&#x1f1fd'
p3632
asVnauru
p3633
(lp3634
g354
asVgem
p3635
(lp3636
g1513
asVflag for costa rica
p3637
(lp3638
S'&#x1f1e8&#x1f1f7'
p3639
asVflag for isle of man
p3640
(lp3641
g408
asVhelena
p3642
(lp3643
g1249
asVhourglass with flowing sand
p3644
(lp3645
g1566
asVjoker
p3646
(lp3647
g1240
asVflag for faroe islands
p3648
(lp3649
g3419
asVclock face two-thirty\u224a two-thirty
p3650
(lp3651
g2465
asVeuropean post office\u224a post office
p3652
(lp3653
g912
asVpants
p3654
(lp3655
g385
asVcrystal
p3656
(lp3657
g1280
asVrwanda
p3658
(lp3659
g2614
asVfire engine
p3660
(lp3661
g3123
asVflag for luxembourg
p3662
(lp3663
g3551
asVkeyboard
p3664
(lp3665
g1607
ag1612
ag1612
asVseat
p3666
(lp3667
g914
ag914
asVparking
p3668
(lp3669
g732
asVpisces
p3670
(lp3671
g1945
ag2555
ag2555
asVcalendar
p3672
(lp3673
g959
ag959
ag960
ag962
asVsport
p3674
(lp3675
g379
ag436
ag1575
ag1265
ag1576
ag1143
ag1577
ag1578
ag1579
ag1580
ag1581
ag1582
ag1583
ag1584
ag1585
ag1586
ag1227
ag681
aS'&#x1f3cc'
p3676
ag2396
ag1587
ag1837
ag1375
ag1453
ag1454
ag3111
ag3149
ag3150
ag2233
ag1165
ag380
ag381
ag2574
ag3151
ag1103
ag382
ag692
asVloudspeaker
p3677
(lp3678
g1253
asVpalette
p3679
(lp3680
g834
asVcamping
p3681
(lp3682
g1975
ag1975
ag1556
asVbicyclist
p3683
(lp3684
g380
ag380
ag313
ag314
ag315
ag316
ag317
ag381
asVlabel
p3685
(lp3686
g1623
ag1623
asVteacup
p3687
(lp3688
g426
asV3
p3689
(lp3690
g1827
ag2090
ag1252
ag919
ag709
asVcongo-brazzaville
p3691
(lp3692
g1095
asVdiamonds
p3693
(lp3694
g2656
asVgeometric
p3695
(lp3696
g2800
ag391
ag2801
ag2802
ag464
ag2803
ag2804
ag2805
ag2806
ag514
ag2807
ag515
ag2808
ag2468
ag1302
ag1714
ag2809
ag2810
ag2811
ag2812
ag2813
ag516
asVface with open mouth
p3697
(lp3698
g1651
asVcheckered
p3699
(lp3700
g692
asVvertical
p3701
(lp3702
g1442
asVbellhop bell
p3703
(lp3704
g1559
asVworried face
p3705
(lp3706
S'&#x1f61f'
p3707
asVloudly crying face
p3708
(lp3709
g2457
asVperson with blond hair
p3710
(lp3711
S'&#x1f471'
p3712
ag38
ag39
ag40
ag41
ag42
asVguitar
p3713
(lp3714
g1606
ag1606
asVrugby
p3715
(lp3716
g1579
asVlibya
p3717
(lp3718
S'&#x1f1f1&#x1f1fe'
p3719
asVnorthern mariana
p3720
(lp3721
S'&#x1f1f2&#x1f1f5'
p3722
asVsparkling heart
p3723
(lp3724
g1184
asV1:30
p3725
(lp3726
g2308
asVquiet
p3727
(lp3728
g1650
ag1592
ag1597
asVrestroom
p3729
(lp3730
g621
ag622
ag623
ag623
ag624
asVpersonal
p3731
(lp3732
g917
asVberry
p3733
(lp3734
g1526
asVcredit card
p3735
(lp3736
g599
asVflipper
p3737
(lp3738
g786
asVrailway
p3739
(lp3740
g1824
ag1326
ag1178
ag1179
ag3130
ag441
ag3132
ag2995
ag3139
ag433
asVhappy person raising one hand\u224a happy person raising hand
p3741
(lp3742
g2218
asVpakistan
p3743
(lp3744
S'&#x1f1f5&#x1f1f0'
p3745
asVblue heart
p3746
(lp3747
g512
asV12:00
p3748
(lp3749
g1806
asV6:30
p3750
(lp3751
g2679
asVcancer
p3752
(lp3753
g1950
ag2552
ag2552
asVflag for ceuta & melilla
p3754
(lp3755
g2670
asVpot
p3756
(lp3757
g1531
ag795
asVjeans
p3758
(lp3759
g385
ag385
asVpoo
p3760
(lp3761
g1290
asVpole
p3762
(lp3763
g3162
ag1587
asVmongolia
p3764
(lp3765
S'&#x1f1f2&#x1f1f3'
p3766
asVboar
p3767
(lp3768
g1915
ag1915
asVcuraao
p3769
(lp3770
g1305
asVcomoros
p3771
(lp3772
S'&#x1f1f0&#x1f1f2'
p3773
asVboat
p3774
(lp3775
g2665
ag3140
ag3141
ag3014
ag3142
asVmath
p3776
(lp3777
g450
ag1403
ag2737
asVturkey
p3778
(lp3779
g1929
ag1929
aS'&#x1f1f9&#x1f1f7'
p3780
asVland
p3781
(lp3782
g3632
asVwest
p3783
(lp3784
g1109
aS'&#x1f1ea&#x1f1ed'
p3785
asVmark
p3786
(lp3787
g1480
ag848
ag936
ag1622
ag1120
ag2582
ag2584
ag746
ag2795
ag2798
ag698
ag699
ag700
ag701
ag702
ag703
ag642
ag734
asVoden
p3788
(lp3789
g1538
ag1538
asVsouth georgia
p3790
(lp3791
S'&#x1f1ec&#x1f1f8'
p3792
asVhelicopter
p3793
(lp3794
g3146
ag3146
asVengine
p3795
(lp3796
g1824
ag3123
asVdirection
p3797
(lp3798
g1104
ag1105
ag1092
ag1106
ag1107
ag1108
ag1109
ag1110
asVshopping
p3799
(lp3800
g1502
asVtiger
p3801
(lp3802
g1903
ag1904
ag1904
asVwales
p3803
(lp3804
g2906
asVsquared cjk unified ideograph-7533\u224a squared apply ideograph
p3805
(lp3806
g737
asVfoggy
p3807
(lp3808
g1978
asVpublic address loudspeaker\u224a loudspeaker
p3809
(lp3810
g1253
asVblack large square
p3811
(lp3812
g2804
asVsound
p3813
(lp3814
g1592
ag1593
ag1594
ag1252
ag1253
ag1595
ag496
ag1596
ag1597
ag1598
ag1599
ag1600
ag557
ag828
ag1601
ag1602
ag1603
ag1605
ag1606
ag1607
ag1608
ag1609
ag915
ag1007
ag761
ag1125
ag1126
ag1127
ag1128
ag1129
ag1130
ag1131
ag1133
ag1134
ag1442
ag1771
aS'&#x23fa'
p3815
ag2352
asVblowfish
p3816
(lp3817
g1947
ag1947
asVflag for portugal
p3818
(lp3819
S'&#x1f1f5&#x1f1f9'
p3820
asVseedling
p3821
(lp3822
g1963
ag1963
asVworried
p3823
(lp3824
g3707
asVclock face eight-thirty\u224a eight-thirty
p3825
(lp3826
g2680
asVnewspaper
p3827
(lp3828
g1620
ag1620
ag1621
asVblack circle for record\u224a record button
p3829
(lp3830
g3815
asVhushed face
p3831
(lp3832
g1172
asVpurse
p3833
(lp3834
g1500
ag1500
asVtelephone
p3835
(lp3836
g1610
ag1102
ag915
ag1007
ag1639
ag1641
ag1642
ag1643
asVderelict house building
p3837
(lp3838
g3338
asVsahara
p3839
(lp3840
g3785
asVironic
p3841
(lp3842
g1895
asVhash
p3843
(lp3844
g706
asVrugby football
p3845
(lp3846
g1579
asVflag for moldova
p3847
(lp3848
S'&#x1f1f2&#x1f1e9'
p3849
asVbar chart
p3850
(lp3851
g966
asVhelmet
p3852
(lp3853
g519
asVsynagogue
p3854
(lp3855
g3343
ag3343
asVman in business suit levitating
p3856
(lp3857
g3102
asVpaw
p3858
(lp3859
g1928
asVfirst quarter moon symbol\u224a first quarter moon
p3860
(lp3861
g1985
asV10:30
p3862
(lp3863
g2682
asVbowl
p3864
(lp3865
g1536
asVflag for so tom & prncipe
p3866
(lp3867
S'&#x1f1f8&#x1f1f9'
p3868
asVethiopia
p3869
(lp3870
S'&#x1f1ea&#x1f1f9'
p3871
asVbermuda
p3872
(lp3873
S'&#x1f1e7&#x1f1f2'
p3874
asVjapanese castle
p3875
(lp3876
g478
asVflag for cape verde
p3877
(lp3878
g2321
asVreminder
p3879
(lp3880
g583
asVdocument
p3881
(lp3882
g933
ag935
asVpan
p3883
(lp3884
g534
asVwaning crescent moon symbol\u224a waning crescent moon
p3885
(lp3886
g1989
asVsee
p3887
(lp3888
g1213
asVsingapore
p3889
(lp3890
S'&#x1f1f8&#x1f1ec'
p3891
asVmunch
p3892
(lp3893
g1693
asVrunning
p3894
(lp3895
g1414
ag1296
ag1837
asVfruit
p3896
(lp3897
g1218
ag1516
ag1517
ag1518
ag1519
ag1520
ag1521
ag1522
ag892
ag1523
ag1524
ag1525
ag1526
asVbarber
p3898
(lp3899
g866
ag3162
asVstatue
p3900
(lp3901
g1717
ag566
asVcomet
p3902
(lp3903
g1572
ag1572
asVfootprint
p3904
(lp3905
g3040
asVhammer and wrench
p3906
(lp3907
g1341
asVtotally
p3908
(lp3909
g2483
asVtheater
p3910
(lp3911
g1557
asVflag for croatia
p3912
(lp3913
S'&#x1f1ed&#x1f1f7'
p3914
asVsouth africa
p3915
(lp3916
S'&#x1f1ff&#x1f1e6'
p3917
asVwriting hand
p3918
(lp3919
g2225
ag263
ag264
ag265
ag266
ag267
asVbottle
p3920
(lp3921
g1550
ag1551
ag1800
asVjoystick
p3922
(lp3923
g1589
ag1589
asVflag for vietnam
p3924
(lp3925
g2673
asVtaxi
p3926
(lp3927
g3136
ag3136
ag1803
asVperforming arts
p3928
(lp3929
g1557
asVman and woman holding hands
p3930
(lp3931
g684
asVracehorse
p3932
(lp3933
g1907
ag3149
asVbactrian camel\u224a two-hump camel
p3934
(lp3935
g1320
asVorthodox cross
p3936
(lp3937
S'&#x2626'
p3938
asVpolish
p3939
(lp3940
g499
asVspeed
p3941
(lp3942
g1178
ag1179
asVflag for azerbaijan
p3943
(lp3944
g3625
asVbarbados
p3945
(lp3946
g773
asVblow
p3947
(lp3948
g902
ag903
asVdeath
p3949
(lp3950
g2098
ag1477
ag1636
ag1637
asVsnowboarder
p3951
(lp3952
g1454
asVthinking
p3953
(lp3954
g3397
asVrose
p3955
(lp3956
g1958
ag1958
asVparlor
p3957
(lp3958
g866
asVdesktop
p3959
(lp3960
g522
asVinstrument
p3961
(lp3962
g1605
ag1606
ag1607
ag1608
ag1609
asV9:30
p3963
(lp3964
g2681
asV4
p3965
(lp3966
g338
ag339
ag340
ag341
asVstopwatch
p3967
(lp3968
g1569
ag1569
asVflag for bulgaria
p3969
(lp3970
g3350
asVflag for samoa
p3971
(lp3972
S'&#x1f1fc&#x1f1f8'
p3973
asVpill
p3974
(lp3975
g1192
ag1192
asVwarning sign\u224a warning
p3976
(lp3977
g3152
asVskier
p3978
(lp3979
g1453
asVswim
p3980
(lp3981
g1498
ag3150
asVround pushpin
p3982
(lp3983
g969
asVfrown
p3984
(lp3985
S'&#x2639'
p3986
ag2204
ag1654
ag3155
asVflag for spain
p3987
(lp3988
S'&#x1f1ea&#x1f1f8'
p3989
asVruler
p3990
(lp3991
g663
ag972
asVwhite sun behind cloud\u224a sun behind large cloud
p3992
(lp3993
g2003
asVdart
p3994
(lp3995
g1367
asVdark
p3996
(lp3997
g1494
ag1983
asVswirl
p3998
(lp3999
g1540
asVbaby symbol
p4000
(lp4001
g2792
asVtraffic
p4002
(lp4003
g2348
ag2349
ag2122
ag2592
asVbandage
p4004
(lp4005
g666
asVworld
p4006
(lp4007
g1725
ag1726
ag543
ag881
ag3073
asVpostal
p4008
(lp4009
g496
asVdisappointed
p4010
(lp4011
g376
ag831
asVburkina faso
p4012
(lp4013
g899
asVgrin
p4014
(lp4015
S'&#x1f600'
p4016
ag1817
ag1892
asVfortune
p4017
(lp4018
g1280
ag447
asVlightning
p4019
(lp4020
g2006
ag366
asVflag for united arab emirates
p4021
(lp4022
g811
asVnose
p4023
(lp4024
S'&#x1f443'
p4025
ag4025
ag278
ag279
ag280
ag281
ag282
ag1916
asVtower
p4026
(lp4027
g2992
asVclap
p4028
(lp4029
g2224
asVflag for martinique
p4030
(lp4031
S'&#x1f1f2&#x1f1f6'
p4032
asVtwelve
p4033
(lp4034
g1806
ag1720
asVsneaker
p4035
(lp4036
g1504
asVbonaire
p4037
(lp4038
g1072
asVthumbs down
p4039
(lp4040
g2221
asVpicture
p4041
(lp4042
g913
asVuppercase
p4043
(lp4044
g715
asVlebanon
p4045
(lp4046
g630
asVflag for australia
p4047
(lp4048
S'&#x1f1e6&#x1f1fa'
p4049
asVcancel
p4050
(lp4051
g2794
ag746
asVflag for vanuatu
p4052
(lp4053
S'&#x1f1fb&#x1f1fa'
p4054
asVclosed umbrella
p4055
(lp4056
g2009
asVslice
p4057
(lp4058
g854
ag1546
asVtennis racquet and ball\u224a tennis
p4059
(lp4060
g1580
asVflag for sint maarten
p4061
(lp4062
S'&#x1f1f8&#x1f1fd'
p4063
asVsudan
p4064
(lp4065
S'&#x1f1f8&#x1f1e9'
p4066
ag3022
asVbento
p4067
(lp4068
g1532
asVopen mailbox with lowered flag
p4069
(lp4070
g949
asVflag for guinea-bissau
p4071
(lp4072
g3613
asVmoon
p4073
(lp4074
g1983
ag1984
ag1985
ag1986
ag1987
ag1062
ag1988
ag1989
ag1990
ag1991
ag1992
ag1993
ag1996
ag580
asVknife
p4075
(lp4076
g420
ag535
ag536
ag1630
asVflag for bermuda
p4077
(lp4078
g3874
asVbusiness
p4079
(lp4080
g3102
asVleaf fluttering in wind
p4081
(lp4082
g902
asVblack small square
p4083
(lp4084
g2800
asVanticlockwise
p4085
(lp4086
g1118
asVbroken
p4087
(lp4088
g1051
asVblack square button
p4089
(lp4090
g2809
asVthailand
p4091
(lp4092
S'&#x1f1f9&#x1f1ed'
p4093
asVflag for saudi arabia
p4094
(lp4095
S'&#x1f1f8&#x1f1e6'
p4096
asVraised hand with fingers splayed
p4097
(lp4098
g1880
ag213
ag214
ag215
ag216
ag217
asVon
p4099
(lp4100
g1120
asVom
p4101
(lp4102
S'&#x1f549'
p4103
asVok
p4104
(lp4105
g2217
ag2220
ag731
asVregistered sign\u224a registered
p4106
(lp4107
g705
asVoh
p4108
(lp4109
g1897
asVisland
p4110
(lp4111
g1029
ag2101
aS'&#x1f1e7&#x1f1fb'
p4112
ag2500
ag2752
ag2826
ag2414
ag2611
ag3419
ag3792
ag3033
ag3167
ag2186
ag400
ag1283
ag3722
ag770
ag3487
ag1393
ag3558
ag3545
ag1268
ag2490
asVshrimp
p4113
(lp4114
g657
asVwolf
p4115
(lp4116
g1901
asVox
p4117
(lp4118
g1910
ag1910
ag2550
asVstars and stripes
p4119
(lp4120
g3546
asVroad
p4121
(lp4122
g3080
asVpart alternation mark
p4123
(lp4124
g2798
asVdagger
p4125
(lp4126
g1630
asVcommunication
p4127
(lp4128
g1253
ag1595
ag496
ag1610
ag1102
ag1007
ag916
ag792
ag925
ag1620
ag940
ag941
ag942
ag943
ag944
ag945
ag946
ag947
ag948
ag949
ag950
ag953
ag869
ag954
ag955
ag956
ag971
ag1639
ag1641
ag1642
ag1643
asVslot machine
p4129
(lp4130
g1558
asVunited states
p4131
(lp4132
g3545
ag3546
ag2490
asVleft speech bubble\u224a eye in speech bubble
p4133
(lp4134
S'&#x1f441&#xfe0f&#x200d&#x1f5e8&#xfe0f'
p4135
asVsyringe
p4136
(lp4137
g1191
ag1191
asVcopyright sign\u224a copyright
p4138
(lp4139
g704
asVracquet
p4140
(lp4141
g1580
ag1227
asVtropical
p4142
(lp4143
g1946
ag1552
asVgraduation cap
p4144
(lp4145
g571
asVflag for french guiana
p4146
(lp4147
g2862
asVferris
p4148
(lp4149
g2200
asVlow
p4150
(lp4151
g1594
ag1084
asV4:30
p4152
(lp4153
g340
asVfrog face
p4154
(lp4155
g1938
asVbubble
p4156
(lp4157
g4135
ag1298
ag2952
ag1299
asVcrescent moon
p4158
(lp4159
g1990
asVbackhand
p4160
(lp4161
g1874
ag1875
ag1876
ag1439
asVjug
p4162
(lp4163
g537
asVflag for vatican city
p4164
(lp4165
g1740
asVprawn
p4166
(lp4167
g657
asVflag for estonia
p4168
(lp4169
g2567
asVflag for st. barthlemy
p4170
(lp4171
S'&#x1f1e7&#x1f1f1'
p4172
asVdromedary
p4173
(lp4174
g1918
asVmaarten
p4175
(lp4176
g4063
asVapology
p4177
(lp4178
g394
asVrage
p4179
(lp4180
g1792
asVvice
p4181
(lp4182
g1345
asVfalklands
p4183
(lp4184
g2611
asVvhs
p4185
(lp4186
g1618
asVstrawberry
p4187
(lp4188
g1526
ag1526
asVchristmas tree
p4189
(lp4190
g573
asVflag for falkland islands
p4191
(lp4192
g2611
asVgrinning face
p4193
(lp4194
g4016
asVtoilet
p4195
(lp4196
g1562
ag1562
asVab
p4197
(lp4198
g721
asVcinema
p4199
(lp4200
g1398
ag1613
ag1614
ag1640
ag1640
asVtaste
p4201
(lp4202
g3596
asVlast quarter moon symbol\u224a last quarter moon
p4203
(lp4204
g1988
asVlesotho
p4205
(lp4206
g1483
asVtshirt
p4207
(lp4208
g1495
asVperson with pouting face
p4209
(lp4210
g108
ag109
ag110
ag111
ag112
asVfile
p4211
(lp4212
g957
ag958
ag974
ag975
asVflag for united kingdom
p4213
(lp4214
g2906
asVnerd
p4215
(lp4216
g1776
asVfilm
p4217
(lp4218
g1613
ag1614
ag1640
asVcream
p4219
(lp4220
g1541
ag1543
asVfuel pump
p4221
(lp4222
g3138
asVclapping hands sign
p4223
(lp4224
g253
ag254
ag255
ag256
ag257
asVpensive
p4225
(lp4226
g1426
asVantenna
p4227
(lp4228
g925
ag1641
asVflag for south africa
p4229
(lp4230
g3917
asVhatching chick
p4231
(lp4232
g1932
asVswords
p4233
(lp4234
g1631
asVflag for chile
p4235
(lp4236
g2118
asVyellow heart
p4237
(lp4238
g334
asVfield
p4239
(lp4240
g1584
asVcircled ideograph advantage\u224a circled advantage ideograph
p4241
(lp4242
g489
asVflag for singapore
p4243
(lp4244
g3891
asV5
p4245
(lp4246
g1853
ag2678
ag710
asVvanuatu
p4247
(lp4248
g4054
asVno one under eighteen symbol\u224a no one under eighteen
p4249
(lp4250
g697
asVwhite sun behind cloud with rain\u224a sun behind cloud with rain
p4251
(lp4252
g2004
asVukraine
p4253
(lp4254
g3317
asVbouvet
p4255
(lp4256
g4112
asVpoop
p4257
(lp4258
g1290
asVtimer clock
p4259
(lp4260
g1570
asVflag for iran
p4261
(lp4262
S'&#x1f1ee&#x1f1f7'
p4263
asVsymbol
p4264
(lp4265
g2069
ag2070
ag2071
ag819
ag2072
ag3353
ag848
ag346
ag1292
ag2952
ag680
ag1515
ag2604
ag1806
ag1720
ag1159
ag2308
ag1013
ag2465
ag1827
ag2090
ag339
ag340
ag1853
ag2678
ag1854
ag2679
ag1855
ag2148
ag1856
ag2680
ag1857
ag2681
ag1666
ag2682
ag1858
ag2683
ag366
ag1436
ag2255
ag2656
ag2376
ag351
ag802
ag803
ag1633
ag1066
ag808
ag2791
ag1702
ag621
ag622
ag623
ag2792
ag624
ag648
ag872
ag1057
ag590
ag3152
ag2122
ag2592
ag2174
ag382
ag2593
ag2541
ag1678
ag2594
ag1639
ag697
ag2529
ag1221
ag1104
ag1105
ag1092
ag1106
ag1107
ag1108
ag1109
ag1110
ag1111
ag1112
ag1113
ag1114
ag1115
ag1116
ag1117
ag1118
ag1119
ag825
ag1120
ag1121
ag1048
ag754
ag4103
aS'&#x2721'
p4266
ag2201
ag1681
ag2382
ag3938
ag2859
ag2793
ag447
ag388
aS'&#x269c'
p4267
ag1329
ag2438
ag2582
ag2583
ag2584
ag2794
ag746
ag2795
ag450
ag1403
ag2737
ag2796
ag2797
ag2798
ag2269
ag2799
ag1185
ag698
ag699
ag700
ag701
ag702
ag703
ag761
ag704
ag705
ag642
ag1418
ag2550
ag2551
ag2552
ag2553
ag1487
ag2141
ag2289
ag2554
ag1089
ag2016
ag2555
ag780
ag1122
ag1123
ag1124
ag1125
ag1126
ag1127
ag1128
ag1129
ag1130
ag1131
ag1132
ag1133
ag325
ag1134
ag1442
ag1771
ag3815
ag2352
ag1640
ag1084
ag1085
ag1641
ag1642
ag1643
ag706
ag2632
ag707
ag708
ag397
ag709
ag341
ag710
ag711
ag712
ag660
ag713
ag714
ag563
ag715
ag716
ag717
ag718
ag719
ag720
ag721
ag722
ag723
ag724
ag725
ag726
ag727
ag728
ag548
ag729
ag730
ag731
ag732
ag733
ag734
ag735
ag484
ag485
ag486
ag487
ag488
ag489
ag490
ag491
ag492
ag736
ag737
ag738
ag739
ag740
ag741
ag742
ag743
ag2800
ag391
ag2801
ag2802
ag464
ag2803
ag2804
ag2805
ag2806
ag514
ag2807
ag515
ag2808
ag2468
ag1302
ag1714
ag2809
ag2810
ag2811
ag2812
ag2813
ag516
asVpear
p4268
(lp4269
g1523
ag1523
asVflag for kiribati
p4270
(lp4271
S'&#x1f1f0&#x1f1ee'
p4272
asVwaving
p4273
(lp4274
g2223
ag1645
ag1646
asVgua pi mao
p4275
(lp4276
g2303
asVjapanese goblin\u224a goblin
p4277
(lp4278
g474
asVflag for iraq
p4279
(lp4280
g2087
asVpalau
p4281
(lp4282
S'&#x1f1f5&#x1f1fc'
p4283
asVdecorated
p4284
(lp4285
g926
asVcuracao
p4286
(lp4287
g1305
asVbuilding
p4288
(lp4289
g3335
ag3336
ag2262
ag3337
ag3338
ag2936
ag3339
ag911
ag477
ag912
ag633
ag1065
ag3340
ag2922
ag444
ag430
ag3341
ag3295
ag478
ag2197
ag3342
ag627
ag1981
asVflag for comoros
p4290
(lp4291
g3773
asVuzbekistan
p4292
(lp4293
S'&#x1f1fa&#x1f1ff'
p4294
asVjapanese post office
p4295
(lp4296
g477
asVmask
p4297
(lp4298
g1190
ag1557
asVflag for ghana
p4299
(lp4300
S'&#x1f1ec&#x1f1ed'
p4301
asVmalvinas
p4302
(lp4303
g2611
asVsmirk
p4304
(lp4305
g1711
asVshuttlecock
p4306
(lp4307
g1227
asVtype-3
p4308
(lp4309
g4
ag9
ag14
ag19
ag24
ag29
ag34
ag39
ag44
ag49
ag54
ag59
ag64
ag69
ag74
ag79
ag84
ag89
ag94
ag99
ag104
ag109
ag114
ag119
ag124
ag129
ag134
ag139
ag144
ag149
ag154
ag159
ag164
ag169
ag174
ag179
ag184
ag189
ag194
ag199
ag204
ag209
ag214
ag219
ag224
ag229
ag234
ag239
ag244
ag249
ag254
ag259
ag264
ag269
ag274
ag279
ag284
ag289
ag294
ag299
ag304
ag309
ag314
ag319
asVtype-5
p4310
(lp4311
g6
ag11
ag16
ag21
ag26
ag31
ag36
ag41
ag46
ag51
ag56
ag61
ag66
ag71
ag76
ag81
ag86
ag91
ag96
ag101
ag106
ag111
ag116
ag121
ag126
ag131
ag136
ag141
ag146
ag151
ag156
ag161
ag166
ag171
ag176
ag181
ag186
ag191
ag196
ag201
ag206
ag211
ag216
ag221
ag226
ag231
ag236
ag241
ag246
ag251
ag256
ag261
ag266
ag271
ag276
ag281
ag286
ag291
ag296
ag301
ag306
ag311
ag316
ag321
asVtype-4
p4312
(lp4313
g5
ag10
ag15
ag20
ag25
ag30
ag35
ag40
ag45
ag50
ag55
ag60
ag65
ag70
ag75
ag80
ag85
ag90
ag95
ag100
ag105
ag110
ag115
ag120
ag125
ag130
ag135
ag140
ag145
ag150
ag155
ag160
ag165
ag170
ag175
ag180
ag185
ag190
ag195
ag200
ag205
ag210
ag215
ag220
ag225
ag230
ag235
ag240
ag245
ag250
ag255
ag260
ag265
ag270
ag275
ag280
ag285
ag290
ag295
ag300
ag305
ag310
ag315
ag320
asVtype-6
p4314
(lp4315
g7
ag12
ag17
ag22
ag27
ag32
ag37
ag42
ag47
ag52
ag57
ag62
ag67
ag72
ag77
ag82
ag87
ag92
ag97
ag102
ag107
ag112
ag117
ag122
ag127
ag132
ag137
ag142
ag147
ag152
ag157
ag162
ag167
ag172
ag177
ag182
ag187
ag192
ag197
ag202
ag207
ag212
ag217
ag222
ag227
ag232
ag237
ag242
ag247
ag252
ag257
ag262
ag267
ag272
ag277
ag282
ag287
ag292
ag297
ag302
ag307
ag312
ag317
ag322
asVmountain bicyclist\u224a mountain biker
p4316
(lp4317
g381
asVchinese
p4318
(lp4319
g736
ag737
ag738
ag739
ag740
ag741
ag742
ag743
asVforbidden
p4320
(lp4321
g1213
ag1214
ag1215
ag2216
ag1597
ag2592
ag2174
ag382
ag2593
ag2541
ag1678
ag2594
ag1639
ag697
asVmartinique
p4322
(lp4323
g4032
asVdollar
p4324
(lp4325
g937
ag799
ag938
ag803
asVflag for cte d\u2019ivoire
p4326
(lp4327
g2160
asVface screaming in fear
p4328
(lp4329
g1693
asVface with stuck-out tongue and winking eye
p4330
(lp4331
g888
asVold key
p4332
(lp4333
g1629
asVsmoking
p4334
(lp4335
g1635
ag2593
asVdish
p4336
(lp4337
g925
asVdisk
p4338
(lp4339
g921
ag922
ag923
ag924
asVflag for andorra
p4340
(lp4341
S'&#x1f1e6&#x1f1e9'
p4342
asVclockwise downwards and upwards open circle arrows\u224a clockwise vertical arrows
p4343
(lp4344
g1117
asVtv
p4345
(lp4346
g1615
asVmilky way
p4347
(lp4348
g1982
ag1982
asVsmiling face with horns
p4349
(lp4350
g1274
asVnational park
p4351
(lp4352
g1977
ag1977
asVspain
p4353
(lp4354
g3989
asVunicorn face
p4355
(lp4356
g1908
asVsmile
p4357
(lp4358
g1817
ag1162
ag1649
ag3178
ag986
aS'&#x1f60a'
p4359
ag845
ag1768
ag370
aS'&#x1f619'
p4360
aS'&#x263a'
p4361
ag3388
ag1273
ag1274
ag1655
ag1892
ag1894
ag1895
asVghana
p4362
(lp4363
g4301
asVok hand sign\u224a ok hand
p4364
(lp4365
g2220
asVwoman
p4366
(lp4367
S'&#x1f469'
p4368
ag4368
ag18
ag19
ag20
ag21
ag22
ag2165
ag2194
ag684
ag686
ag3103
aS'&#x1f469&#x200d&#x2764&#xfe0f&#x200d&#x1f48b&#x200d&#x1f469'
p4369
ag4369
ag3104
aS'&#x1f469&#x200d&#x2764&#xfe0f&#x200d&#x1f469'
p4370
ag4370
ag2879
ag2879
ag3105
ag3105
ag2880
ag2880
ag2881
ag2881
ag3106
ag3106
ag1684
ag1684
ag1685
ag1685
ag1686
ag1686
ag1687
ag1687
ag1688
ag1688
ag1499
ag1505
ag1506
ag1507
ag1509
ag622
asVparcel
p4371
(lp4372
g945
asVsquared cool
p4373
(lp4374
g724
asVno entry
p4375
(lp4376
g2592
asVmountain cableway
p4377
(lp4378
g3147
asVflag for brunei
p4379
(lp4380
g2909
asVcyclone
p4381
(lp4382
g1323
ag1323
asVwater closet
p4383
(lp4384
g624
asVhatching
p4385
(lp4386
g1932
asVticket
p4387
(lp4388
g1573
ag1574
ag1574
asVramen
p4389
(lp4390
g1536
asVupside-down face
p4391
(lp4392
g2093
asVnorfolk
p4393
(lp4394
g770
asVcable
p4395
(lp4396
g3147
ag3000
asVcloud with lightning
p4397
(lp4398
g2006
asVmoldova
p4399
(lp4400
g3849
asVsand
p4401
(lp4402
g1565
ag1566
asV-1
p4403
(lp4404
g2221
asVflag for western sahara
p4405
(lp4406
g3785
asVrice cracker
p4407
(lp4408
g1533
asVlocomotive
p4409
(lp4410
g1824
asVtriangular ruler
p4411
(lp4412
g972
asVsamoa
p4413
(lp4414
S'&#x1f1e6&#x1f1f8'
p4415
ag3973
asVbaby angel
p4416
(lp4417
g1279
ag88
ag89
ag90
ag91
ag92
asVten
p4418
(lp4419
g1666
ag2682
ag714
asVtea
p4420
(lp4421
g838
ag426
asVglowing star
p4422
(lp4423
g508
asVburger
p4424
(lp4425
g1530
asVzero
p4426
(lp4427
g707
asVribbon
p4428
(lp4429
g1492
ag581
ag581
ag583
asVabc
p4430
(lp4431
g719
asVclock
p4432
(lp4433
g1567
ag1568
ag1569
ag1570
ag1571
ag1806
ag1720
ag1159
ag2308
ag1013
ag2465
ag1827
ag2090
ag339
ag340
ag1853
ag2678
ag1854
ag2679
ag1855
ag2148
ag1856
ag2680
ag1857
ag2681
ag1666
ag2682
ag1858
ag2683
asVsun
p4434
(lp4435
g1768
ag1960
ag822
ag1980
ag627
ag1981
ag1995
ag1997
ag2001
ag2002
ag2003
ag2004
ag1243
asVbusts in silhouette
p4436
(lp4437
g1747
asVropeway
p4438
(lp4439
g3000
asVopen mailbox with raised flag
p4440
(lp4441
g948
asVracing
p4442
(lp4443
g1907
ag3149
ag2574
ag3151
ag692
asVdizzy symbol\u224a dizzy
p4444
(lp4445
g1297
asVoutgoing
p4446
(lp4447
g942
asVfull
p4448
(lp4449
g1987
ag1996
ag563
asVchristian
p4450
(lp4451
g3342
ag2382
ag3938
asVsquared ok
p4452
(lp4453
g731
asVflag for taiwan
p4454
(lp4455
g1846
asVmonkey face
p4456
(lp4457
g1899
asVsurfer
p4458
(lp4459
g3111
ag3111
ag293
ag294
ag295
ag296
ag297
asVbeacon
p4460
(lp4461
g1195
asVclassical building
p4462
(lp4463
g3335
asVblack medium square
p4464
(lp4465
g2802
asVbusstop
p4466
(lp4467
g1731
asVpage facing up
p4468
(lp4469
g935
asVbelize
p4470
(lp4471
g2692
asVsearch
p4472
(lp4473
g671
ag672
asVflag for antarctica
p4474
(lp4475
S'&#x1f1e6&#x1f1f6'
p4476
asVsquared cjk unified ideograph-5408\u224a squared together ideograph
p4477
(lp4478
g738
asVperson frowning
p4479
(lp4480
g3155
ag103
ag104
ag105
ag106
ag107
asVtwisted rightwards arrows\u224a shuffle tracks button
p4481
(lp4482
g1122
asVflag for colombia
p4483
(lp4484
S'&#x1f1e8&#x1f1f4'
p4485
asVolder man
p4486
(lp4487
g23
ag24
ag25
ag26
ag27
asVhamster
p4488
(lp4489
g1922
asVgraph
p4490
(lp4491
g351
ag964
ag965
ag966
asVwhite up pointing backhand index
p4492
(lp4493
g183
ag184
ag185
ag186
ag187
asVclock face ten-thirty\u224a ten-thirty
p4494
(lp4495
g2682
asVfamily
p4496
(lp4497
g2121
ag2121
ag2879
ag3105
ag2880
ag2881
ag3106
ag2882
ag3107
ag2883
ag2884
ag3108
ag1684
ag1685
ag1686
ag1687
ag1688
asVafrica
p4498
(lp4499
g1725
asVflag for ireland
p4500
(lp4501
S'&#x1f1ee&#x1f1ea'
p4502
asVautomated teller machine\u224a atm sign
p4503
(lp4504
g1066
asVheavy large circle
p4505
(lp4506
g2438
asVbeating heart
p4507
(lp4508
g2411
asVdango
p4509
(lp4510
g476
ag476
asVeye
p4511
(lp4512
g1817
ag1649
ag4359
ag1768
ag370
ag4360
ag2294
ag888
ag3596
ag1892
ag1894
ag1896
ag3426
aS'&#x1f441'
p4513
ag4513
ag4135
ag4135
ag1493
ag1494
ag1367
asVcollision symbol\u224a collision
p4514
(lp4515
g1294
asVniger
p4516
(lp4517
S'&#x1f1f3&#x1f1ea'
p4518
asVpoodle
p4519
(lp4520
g1675
ag1675
asVclock face four oclock\u224a four o\u2019clock
p4521
(lp4522
g339
asVflag for south sudan
p4523
(lp4524
g3022
asVpapua new guinea
p4525
(lp4526
g551
asV6
p4527
(lp4528
g1854
ag2679
ag711
asVblack sun with rays\u224a sun
p4529
(lp4530
g1995
asVinjury
p4531
(lp4532
g666
asVheavy multiplication x
p4533
(lp4534
g2794
asVchestnut
p4535
(lp4536
g1968
ag1968
asVladybug
p4537
(lp4538
g331
asVisrael
p4539
(lp4540
S'&#x1f1ee&#x1f1f1'
p4541
asVdiamond
p4542
(lp4543
g1512
ag1513
ag2656
ag2806
ag514
ag2807
ag515
ag1302
asVdoor
p4544
(lp4545
g1560
ag1560
asVflag
p4546
(lp4547
g578
ag681
ag946
ag947
ag948
ag949
ag692
ag1644
ag493
ag1645
ag1646
ag2101
ag4342
ag811
ag2829
ag860
ag363
aS'&#x1f1e6&#x1f1f1'
p4548
ag1696
ag1146
ag4476
ag2641
ag4415
ag2324
ag4049
ag593
ag3632
ag3625
ag1081
ag773
ag2704
ag3127
ag899
ag3350
ag1763
ag3490
ag2059
ag4172
ag3874
ag2909
ag2497
ag1072
ag1750
ag3408
ag2042
ag4112
ag605
ag1045
ag2692
ag587
ag2500
ag610
ag1175
ag1095
ag3536
ag2160
ag2752
ag2118
aS'&#x1f1e8&#x1f1f2'
p4549
ag2064
ag4485
ag2826
ag3639
aS'&#x1f1e8&#x1f1fa'
p4550
ag2321
ag1305
ag2414
ag357
aS'&#x1f1e8&#x1f1ff'
p4551
aS'&#x1f1e9&#x1f1ea'
p4552
ag3009
ag2272
ag2460
aS'&#x1f1e9&#x1f1f2'
p4553
ag1010
aS'&#x1f1e9&#x1f1ff'
p4554
ag2670
ag1021
ag2567
ag3211
ag3785
ag2136
ag3989
ag3871
aS'&#x1f1ea&#x1f1fa'
p4555
aS'&#x1f1eb&#x1f1ee'
p4556
ag2435
ag2611
ag2971
ag3419
ag1364
aS'&#x1f1ec&#x1f1e6'
p4557
ag2906
ag764
aS'&#x1f1ec&#x1f1ea'
p4558
ag2862
ag405
ag4301
ag3114
aS'&#x1f1ec&#x1f1f1'
p4559
ag1237
ag639
ag3019
aS'&#x1f1ec&#x1f1f6'
p4560
ag3473
ag3792
ag1779
aS'&#x1f1ec&#x1f1fa'
p4561
ag3613
ag1467
ag2065
ag3033
ag2536
ag3914
ag1789
aS'&#x1f1ed&#x1f1fa'
p4562
ag3167
aS'&#x1f1ee&#x1f1e9'
p4563
ag4502
ag4541
ag408
ag789
ag2186
ag2087
ag4263
ag1390
aS'&#x1f1ee&#x1f1f9'
p4564
aS'&#x1f1ef&#x1f1ea'
p4565
ag459
aS'&#x1f1ef&#x1f1f4'
p4566
ag1001
aS'&#x1f1f0&#x1f1ea'
p4567
ag2816
ag2599
ag4272
ag3773
ag3068
ag2363
ag2364
ag1036
ag400
ag2625
aS'&#x1f1f1&#x1f1e6'
p4568
ag630
aS'&#x1f1f1&#x1f1e8'
p4569
aS'&#x1f1f1&#x1f1ee'
p4570
ag3238
aS'&#x1f1f1&#x1f1f7'
p4571
ag1483
ag1256
ag3551
aS'&#x1f1f1&#x1f1fb'
p4572
ag3719
aS'&#x1f1f2&#x1f1e6'
p4573
aS'&#x1f1f2&#x1f1e8'
p4574
ag3849
ag1470
ag2863
ag2931
ag1283
ag2054
ag2786
ag616
ag3766
ag2066
ag3722
ag4032
aS'&#x1f1f2&#x1f1f7'
p4575
ag3620
aS'&#x1f1f2&#x1f1f9'
p4576
ag2240
aS'&#x1f1f2&#x1f1fb'
p4577
ag1246
ag2155
ag2373
aS'&#x1f1f2&#x1f1ff'
p4578
ag983
ag549
ag4518
ag770
aS'&#x1f1f3&#x1f1ec'
p4579
aS'&#x1f1f3&#x1f1ee'
p4580
ag1073
ag3198
aS'&#x1f1f3&#x1f1f5'
p4581
ag354
ag602
ag550
ag596
ag531
ag2959
ag2864
ag551
ag1230
ag3745
ag1429
ag2518
ag3487
aS'&#x1f1f5&#x1f1f7'
p4582
ag1352
ag3820
ag4283
aS'&#x1f1f5&#x1f1fe'
p4583
ag636
ag3049
ag3493
ag2851
ag3466
ag2614
ag4096
ag1393
ag992
ag4066
aS'&#x1f1f8&#x1f1ea'
p4584
ag3891
ag1249
ag2228
ag328
aS'&#x1f1f8&#x1f1f0'
p4585
aS'&#x1f1f8&#x1f1f1'
p4586
ag3476
aS'&#x1f1f8&#x1f1f3'
p4587
ag2838
ag2509
ag3022
ag3868
aS'&#x1f1f8&#x1f1fb'
p4588
ag4063
ag2360
ag560
aS'&#x1f1f9&#x1f1e6'
p4589
ag3558
aS'&#x1f1f9&#x1f1e9'
p4590
ag2865
aS'&#x1f1f9&#x1f1ec'
p4591
ag4093
ag2111
ag3573
ag1699
aS'&#x1f1f9&#x1f1f2'
p4592
aS'&#x1f1f9&#x1f1f3'
p4593
aS'&#x1f1f9&#x1f1f4'
p4594
ag3780
ag2941
aS'&#x1f1f9&#x1f1fb'
p4595
ag1846
ag2181
ag3317
aS'&#x1f1fa&#x1f1ec'
p4596
ag3545
ag3546
ag3027
ag4294
ag1740
ag857
ag1198
ag1268
ag2490
ag2673
ag4054
ag651
ag3973
aS'&#x1f1fd&#x1f1f0'
p4597
aS'&#x1f1fe&#x1f1ea'
p4598
ag1206
ag3917
aS'&#x1f1ff&#x1f1f2'
p4599
aS'&#x1f1ff&#x1f1fc'
p4600
asVhammer and pick
p4601
(lp4602
g1340
asVstick
p4603
(lp4604
g1538
ag476
ag1584
ag1585
asVkaraoke
p4605
(lp4606
g1602
asVcurrency exchange
p4607
(lp4608
g802
asVkeycap digit nine
p4609
(lp4610
g713
asVflag for laos
p4611
(lp4612
g4568
asVflag for paraguay
p4613
(lp4614
g4583
asVlarge blue circle\u224a blue circle
p4615
(lp4616
g516
asVjack-o-lantern
p4617
(lp4618
g414
asVshinto shrine
p4619
(lp4620
g2604
asV4:00
p4621
(lp4622
g339
asVnine
p4623
(lp4624
g1857
ag2681
ag713
asVheart decoration
p4625
(lp4626
g3353
asVv
p4627
(lp4628
g1098
asVyemen
p4629
(lp4630
g4598
asVhong kong
p4631
(lp4632
g2065
asVsleuth
p4633
(lp4634
g2887
asVhamburger
p4635
(lp4636
g1530
ag1530
asVtelephone receiver
p4637
(lp4638
g1007
asVnew caledonia
p4639
(lp4640
g549
asVcollision
p4641
(lp4642
g1294
asVfishing pole and fish\u224a fishing pole
p4643
(lp4644
g1587
asVnumbers
p4645
(lp4646
g717
asVkenya
p4647
(lp4648
g4567
asV11:00
p4649
(lp4650
g1858
asVairplane
p4651
(lp4652
g3143
ag3143
ag3144
ag3145
ag2379
asVdress
p4653
(lp4654
g1496
ag1496
asVinformation
p4655
(lp4656
g2129
ag726
asVflag for norway
p4657
(lp4658
g3198
asVdog face
p4659
(lp4660
g1673
asVwhite down pointing backhand index
p4661
(lp4662
g193
ag194
ag195
ag196
ag197
asVspeedboat
p4663
(lp4664
g3141
ag3141
asVclock face seven-thirty\u224a seven-thirty
p4665
(lp4666
g2148
asV+1
p4667
(lp4668
g1889
asVfile folder
p4669
(lp4670
g957
asVcityscape at dusk
p4671
(lp4672
g627
asVflushed face
p4673
(lp4674
g2649
asVclink
p4675
(lp4676
g1554
asVgoat
p4677
(lp4678
g1088
ag1088
ag1089
asVcreature
p4679
(lp4680
g473
ag474
ag1275
ag1276
ag1277
asVplant
p4681
(lp4682
g1514
ag1956
ag1957
ag1958
ag1959
ag1960
ag1961
ag1962
ag1963
ag1378
ag675
ag1379
ag502
ag1757
ag554
ag1964
ag338
ag1965
ag1966
ag902
ag1218
ag1516
ag1517
ag1518
ag1519
ag1520
ag1521
ag1522
ag892
ag1523
ag1524
ag1525
ag1526
ag1527
ag1528
ag1529
ag837
ag1967
ag1968
ag480
asVblood
p4683
(lp4684
g720
ag721
ag722
ag730
asVsyria
p4685
(lp4686
g2360
asVbear face
p4687
(lp4688
g1926
asVblack right-pointing double triangle with vertical bar\u224a next track button
p4689
(lp4690
g1127
asVflutter
p4691
(lp4692
g902
asVa
p4693
(lp4694
g720
asVface with tears of joy
p4695
(lp4696
g2763
asVblush
p4697
(lp4698
g4359
asVup down arrow\u224a up-down arrow
p4699
(lp4700
g1111
asVdoctor
p4701
(lp4702
g1190
ag633
ag1191
ag1192
asVdeparture
p4703
(lp4704
g3145
asVvolleyball
p4705
(lp4706
g1577
ag1577
asVdragon
p4707
(lp4708
g1941
ag1942
ag1942
asVwrench
p4709
(lp4710
g1341
ag1342
ag1342
asValphabet
p4711
(lp4712
g719
asVsquared cjk unified ideograph-6307\u224a squared finger ideograph
p4713
(lp4714
g488
asVegg
p4715
(lp4716
g534
asVplaying
p4717
(lp4718
g1240
ag482
asVminor outlying
p4719
(lp4720
g3545
asVislas
p4721
(lp4722
g2611
asVmexican
p4723
(lp4724
g1971
ag1972
asVhelp
p4725
(lp4726
g2129
ag733
asVflag for suriname
p4727
(lp4728
g2509
asVflag for caribbean netherlands
p4729
(lp4730
g1072
asVsoon
p4731
(lp4732
g1121
asVnorth korea
p4733
(lp4734
g2363
asVpaper
p4735
(lp4736
g934
ag1620
ag1621
asVleft
p4737
(lp4738
g1129
asVislam
p4739
(lp4740
g2858
ag1411
ag2859
asV5:30
p4741
(lp4742
g2678
asVcall
p4743
(lp4744
g1102
asVpray
p4745
(lp4746
g1743
asVclosed mailbox with lowered flag
p4747
(lp4748
g947
asVresort
p4749
(lp4750
g2665
asVspeech
p4751
(lp4752
g4135
ag1298
ag2697
asVargentina
p4753
(lp4754
g2641
asVsoccer
p4755
(lp4756
g1265
asVcongo-kinshasa
p4757
(lp4758
g610
asVwry
p4759
(lp4760
g1895
asVevening
p4761
(lp4762
g627
asVfood
p4763
(lp4764
g845
ag1218
ag1516
ag1517
ag1518
ag1519
ag1520
ag1521
ag1522
ag892
ag1523
ag1524
ag1525
ag1526
ag1527
ag1528
ag837
ag1069
ag1969
ag1078
ag1140
ag1530
ag1382
ag854
ag1970
ag1971
ag1972
ag534
ag1531
ag1973
ag1532
ag1533
ag475
ag1534
ag1535
ag1536
ag1537
ag1054
ag1538
ag1539
ag657
ag1540
ag476
ag1541
ag1542
ag1543
ag1544
ag1545
ag572
ag1546
ag1547
ag1548
ag1224
ag1549
ag795
ag420
ag535
asVflag for curaao
p4765
(lp4766
g1305
asVspeaker with one sound wave\u224a speaker on
p4767
(lp4768
g1594
asVcanada
p4769
(lp4770
g587
asVraised fist
p4771
(lp4772
g2222
ag238
ag239
ag240
ag241
ag242
asVtrolleybus
p4773
(lp4774
g1326
ag3133
ag2996
ag360
ag360
asVflag for slovenia
p4775
(lp4776
g2228
asVnegative squared latin capital letter b\u224a b button
p4777
(lp4778
g722
asVtable tennis paddle and ball\u224a ping pong
p4779
(lp4780
g1586
asVnamibia
p4781
(lp4782
g983
asVlast quarter moon with face
p4783
(lp4784
g1993
asVbutton
p4785
(lp4786
g919
ag1132
ag325
ag1714
ag2809
ag2810
asVlantern
p4787
(lp4788
g414
ag483
asVbarthlemy
p4789
(lp4790
g4172
asVengland
p4791
(lp4792
g2906
asVput litter in its place symbol\u224a litter in bin sign
p4793
(lp4794
g808
asVweight
p4795
(lp4796
g1165
ag1347
asVhouse
p4797
(lp4798
g2262
ag3338
ag2936
ag3339
asVfish
p4799
(lp4800
g1945
ag1945
ag1946
ag1947
ag1540
ag1587
ag2555
asVpot of food
p4801
(lp4802
g1531
asVidea
p4803
(lp4804
g1301
asVoil
p4805
(lp4806
g1638
asVfist
p4807
(lp4808
g2222
ag884
asVwaxing crescent moon symbol\u224a waxing crescent moon
p4809
(lp4810
g1984
asVmens symbol\u224a men\u2019s room
p4811
(lp4812
g621
asVflower
p4813
(lp4814
g1514
ag1956
ag1515
ag1958
ag1959
ag1960
ag1961
ag1962
ag482
asVlipstick
p4815
(lp4816
g1511
ag1511
asVnepal
p4817
(lp4818
g4581
asVrabbit face
p4819
(lp4820
g1923
asVfountain
p4821
(lp4822
g1555
ag1555
ag953
asV7
p4823
(lp4824
g1855
ag2148
ag712
asVprint
p4825
(lp4826
g3040
ag1928
asVmoney-mouth face
p4827
(lp4828
g1653
asVhighway
p4829
(lp4830
g3080
asVsubway
p4831
(lp4832
g3131
asVdung
p4833
(lp4834
g1290
asVtable tennis
p4835
(lp4836
g1586
asVcookie
p4837
(lp4838
g1545
ag1545
asVflag for south georgia & south sandwich islands
p4839
(lp4840
g3792
asVask
p4841
(lp4842
g1743
asVflag for uganda
p4843
(lp4844
g4596
asVgame die
p4845
(lp4846
g1590
asVface without mouth
p4847
(lp4848
g1650
asVfinland
p4849
(lp4850
g4556
asVbell with cancellation stroke\u224a bell with slash
p4851
(lp4852
g1597
asVelectric torch\u224a flashlight
p4853
(lp4854
g1337
asVflag for haiti
p4855
(lp4856
g1789
asVamericas
p4857
(lp4858
g1726
asVcheering
p4859
(lp4860
g1595
asVamerican
p4861
(lp4862
g1578
ag4415
ag2490
asVflag for somalia
p4863
(lp4864
g2838
asVheartbeat
p4865
(lp4866
g2411
asVcastle
p4867
(lp4868
g478
ag2197
asVdeciduous tree
p4869
(lp4870
g675
asVheavy dollar sign
p4871
(lp4872
g803
asVguam
p4873
(lp4874
g4561
asVvalentine
p4875
(lp4876
g1492
asVfeet
p4877
(lp4878
g1928
asVsympathy
p4879
(lp4880
g1651
asVcolombia
p4881
(lp4882
g4485
asVchanging
p4883
(lp4884
g2792
asVflag for jersey
p4885
(lp4886
g4565
asVwomans hat\u224a woman\u2019s hat
p4887
(lp4888
g1509
asVmaple
p4889
(lp4890
g1965
asVhorse
p4891
(lp4892
g1906
ag1907
ag1907
ag3344
ag3149
asVjew
p4893
(lp4894
g3343
ag4266
asVblossom
p4895
(lp4896
g1956
ag1961
ag1961
asVautomobile
p4897
(lp4898
g2998
ag2998
ag2999
asVflag for turkey
p4899
(lp4900
g3780
asVstation
p4901
(lp4902
g3132
ag3132
ag3138
asVgibraltar
p4903
(lp4904
g3114
asVsaint
p4905
(lp4906
g4172
ag3068
ag4569
ag2863
ag2518
ag1249
ag857
asVhorse face
p4907
(lp4908
g1906
asVnigeria
p4909
(lp4910
g4579
asVhundred
p4911
(lp4912
g563
asVbanana
p4913
(lp4914
g1520
ag1520
asVstore
p4915
(lp4916
g444
ag3341
asVbow and arrow
p4917
(lp4918
g1103
asVcow face
p4919
(lp4920
g1909
asVsmall orange diamond
p4921
(lp4922
g2807
asVrelieved
p4923
(lp4924
g376
aS'&#x1f60c'
p4925
asVhotel
p4926
(lp4927
g1502
ag3340
ag3340
ag2922
ag1559
ag347
ag348
ag1561
asVpark
p4928
(lp4929
g1977
asVemoji modifier fitzpatrick type-3\u224a skin type-3
p4930
(lp4931
g2070
asVflag for bouvet island
p4932
(lp4933
g4112
asVflag for zambia
p4934
(lp4935
g4599
asVoptical
p4936
(lp4937
g921
ag923
ag924
asVtyphoon
p4938
(lp4939
g1323
asVburrito
p4940
(lp4941
g1972
ag1972
asVfrowning face with open mouth
p4942
(lp4943
g1654
asVking
p4944
(lp4945
g1508
asVb
p4946
(lp4947
g722
asVlow brightness symbol\u224a dim button
p4948
(lp4949
g1084
asVdouble
p4950
(lp4951
g2797
ag1126
ag1130
ag1133
ag1134
ag1442
asVflag for st. pierre & miquelon
p4952
(lp4953
g2518
asVbride
p4954
(lp4955
g1784
asVemirates
p4956
(lp4957
g811
asVbarthelemy
p4958
(lp4959
g4172
asVpile of poo
p4960
(lp4961
g1290
asV8:30
p4962
(lp4963
g2680
asVflag for china
p4964
(lp4965
g2064
asVflag for northern mariana islands
p4966
(lp4967
g3722
asVflag for maldives
p4968
(lp4969
g4577
asVheavy exclamation mark symbol\u224a exclamation mark
p4970
(lp4971
g703
asVcrossed swords
p4972
(lp4973
g1631
asVmacau
p4974
(lp4975
g2066
asVcaicos
p4976
(lp4977
g3558
asVchipmunk
p4978
(lp4979
g1925
ag1925
asVreunion
p4980
(lp4981
g3049
asVpedestrian
p4982
(lp4983
g1372
ag1372
ag148
ag149
ag150
ag151
ag152
ag2122
ag2594
asVantarctica
p4984
(lp4985
g4476
asV1:00
p4986
(lp4987
g1159
asVblond
p4988
(lp4989
g3712
asVflag for trinidad & tobago
p4990
(lp4991
g2941
asVmacao
p4992
(lp4993
g2066
asVmountain
p4994
(lp4995
g1448
ag3334
ag3334
ag1137
ag1974
ag822
ag2995
ag3147
ag381
asVkoala
p4996
(lp4997
g1927
ag1927
asVfiji
p4998
(lp4999
g2435
asVprncipe
p5000
(lp5001
g3868
asVflag for united states
p5002
(lp5003
g3546
asVorange book
p5004
(lp5005
g929
asVopen lock
p5006
(lp5007
g1626
asVcouch
p5008
(lp5009
g1561
asVeuropean union
p5010
(lp5011
g4555
asVthumbs up sign
p5012
(lp5013
g228
ag229
ag230
ag231
ag232
asVknobs
p5014
(lp5015
g1601
asVcameroon
p5016
(lp5017
g4549
asVplay
p5018
(lp5019
g1125
ag1128
asVneedle
p5020
(lp5021
g1191
asVelectric
p5022
(lp5023
g1326
ag366
ag367
ag1301
ag1337
asVeruption
p5024
(lp5025
g1137
asVchart
p5026
(lp5027
g351
ag964
ag965
ag966
asVflag for diego garcia
p5028
(lp5029
g3009
asVsleeping accommodation\u224a person in bed
p5030
(lp5031
g347
asVtonga
p5032
(lp5033
g4594
asVmobile
p5034
(lp5035
g1610
ag1102
ag1639
ag1641
ag1642
ag1643
asVcover
p5036
(lp5037
g926
asVnew moon with face\u224a new moon face
p5038
(lp5039
g1991
asVliechtenstein
p5040
(lp5041
g4570
asVpart
p5042
(lp5043
g2798
asVbullseye
p5044
(lp5045
g1367
asVjordan
p5046
(lp5047
g4566
asVclock face five oclock\u224a five o\u2019clock
p5048
(lp5049
g1853
asVclapping hands sign\u224a clapping hands
p5050
(lp5051
g2224
asVsplashing sweat symbol\u224a sweat droplets
p5052
(lp5053
g1295
asVminidisk
p5054
(lp5055
g921
asVgolf
p5056
(lp5057
g681
ag3676
asVstunned
p5058
(lp5059
g1172
asVkosovo
p5060
(lp5061
g4597
asVminidisc
p5062
(lp5063
g921
asVflag for gambia
p5064
(lp5065
g1237
asVhugging
p5066
(lp5067
g3429
asVmiquelon
p5068
(lp5069
g2518
asVcrayon
p5070
(lp5071
g955
asVright anger bubble
p5072
(lp5073
g2952
asVnotebook with decorative cover
p5074
(lp5075
g926
asVcouple with heart
p5076
(lp5077
g2921
asVcopyright
p5078
(lp5079
g704
asVmusic
p5080
(lp5081
g1598
ag1599
ag1600
ag557
ag828
ag1601
ag1605
ag1606
ag1607
ag1608
ag1609
asVjustice
p5082
(lp5083
g1347
ag2141
asVnervous
p5084
(lp5085
g875
asVfax machine
p5086
(lp5087
g792
asVunhappy
p5088
(lp5089
S'&#x1f612'
p5090
asVflag for armenia
p5091
(lp5092
g1696
asVwhite smiling face\u224a smiling face
p5093
(lp5094
g4361
asVmoney
p5095
(lp5096
g1653
ag937
ag798
ag799
ag800
ag801
ag938
ag599
ag351
ag802
ag803
asVblack right-pointing triangle\u224a play button
p5097
(lp5098
g1125
asV8
p5099
(lp5100
g1856
ag2680
ag1581
ag660
asVcircle
p5101
(lp5102
g2438
ag3815
ag728
ag2811
ag2812
ag2813
ag516
asVsmiling face with open mouth and cold sweat
p5103
(lp5104
g3178
asVgreen book
p5105
(lp5106
g893
asVpouting face
p5107
(lp5108
g1792
asVhit
p5109
(lp5110
g1367
asVhouse with garden
p5111
(lp5112
g3339
asVzambia
p5113
(lp5114
g4599
asVsunny
p5115
(lp5116
g1995
asVwhite heavy check mark
p5117
(lp5118
g2582
asVbanner
p5119
(lp5120
g479
asVpassport control
p5121
(lp5122
g648
asVunion jack
p5123
(lp5124
g2906
asVheart with arrow
p5125
(lp5126
g1101
asVradioactive sign\u224a radioactive
p5127
(lp5128
g2529
asVcry
p5129
(lp5130
g2764
ag2457
ag1898
asVcroatia
p5131
(lp5132
g3914
asVactivity
p5133
(lp5134
g569
ag429
ag1312
ag571
ag423
ag3344
ag2200
ag2029
ag3345
ag1557
ag834
ag1558
ag1999
ag414
ag573
ag574
ag575
ag576
ag577
ag417
ag479
ag480
ag481
ag578
ag579
ag580
ag1574
ag1367
ag482
ag1598
ag1599
ag1600
ag1602
ag1603
ag1605
ag1606
ag1607
ag1608
ag1609
ag1398
ag980
ag1635
ag1640
ag493
asVswitzerland
p5135
(lp5136
g3536
asVx
p5137
(lp5138
g2794
ag746
asVvincent
p5139
(lp5140
g857
asVflag for togo
p5141
(lp5142
g4591
asVinput symbol for symbols\u224a input symbols
p5143
(lp5144
g718
asVset
p5145
(lp5146
g972
asVart
p5147
(lp5148
g1557
ag913
ag834
asVflag for palau
p5149
(lp5150
g4283
asVexclamation question mark
p5151
(lp5152
g699
asVflag for malta
p5153
(lp5154
g4576
asVcircus tent
p5155
(lp5156
g3345
asVflag for mongolia
p5157
(lp5158
g3766
asVlion
p5159
(lp5160
g373
ag2553
asVom symbol\u224a om
p5161
(lp5162
g4103
asVsea
p5163
(lp5164
g2665
asVspock
p5165
(lp5166
g1878
asVhibiscus
p5167
(lp5168
g1959
ag1959
asVmovie
p5169
(lp5170
g1398
ag1613
ag1614
ag980
ag1640
asVexchange
p5171
(lp5172
g802
asVplease
p5173
(lp5174
g1743
asVcloud with snow
p5175
(lp5176
g1449
asVwon
p5177
(lp5178
g453
asVgabon
p5179
(lp5180
g4557
asVeurope
p5181
(lp5182
g1725
asVmakeup
p5183
(lp5184
g1511
asVmoyai
p5185
(lp5186
g566
asVmailbox
p5187
(lp5188
g946
ag947
ag948
ag949
ag950
asVface with cold sweat
p5189
(lp5190
g3179
asVearth globe europe-africa\u224a globe showing europe-africa
p5191
(lp5192
g1725
asVman with gua pi mao
p5193
(lp5194
g48
ag49
ag50
ag51
ag52
asVclock face four-thirty\u224a four-thirty
p5195
(lp5196
g340
asVflag for san marino
p5197
(lp5198
g3476
asVecuador
p5199
(lp5200
g1021
asVreverse
p5201
(lp5202
g1129
asVairplane arriving\u224a airplane arrival
p5203
(lp5204
g2379
asVmcdonald
p5205
(lp5206
g3033
asVblack left-pointing double triangle\u224a fast reverse button
p5207
(lp5208
g1130
asVeggplant
p5209
(lp5210
g1528
asVshortcake
p5211
(lp5212
g1546
ag1546
asV9:00
p5213
(lp5214
g1857
asVloaf
p5215
(lp5216
g1069
asVcooked rice
p5217
(lp5218
g1534
asVpoint
p5219
(lp5220
g1874
ag1875
ag1004
ag1876
ag1439
asVbattery
p5221
(lp5222
g1611
ag1611
asVsweet
p5223
(lp5224
g1054
ag476
ag1541
ag1542
ag1543
ag1544
ag1545
ag572
ag1546
ag1547
ag1548
ag1224
ag1549
ag795
asVwastebasket
p5225
(lp5226
g976
ag976
asVwhite square button
p5227
(lp5228
g2810
asVdancer
p5229
(lp5230
g2194
aS'&#x1f483'
p5231
ag5231
ag158
ag159
ag160
ag161
ag162
asVflag for malawi
p5232
(lp5233
g1246
asVflag for tonga
p5234
(lp5235
g4594
asVchurch
p5236
(lp5237
g3342
ag3342
asVbridge at night
p5238
(lp5239
g1406
asVdevil
p5240
(lp5241
g1024
asVmiddle finger
p5242
(lp5243
g1877
asVunderage
p5244
(lp5245
g697
asVtop hat
p5246
(lp5247
g1312
asVpc
p5248
(lp5249
g917
asVsecret
p5250
(lp5251
g741
asVireland
p5252
(lp5253
g2906
ag4502
asVlaos
p5254
(lp5255
g4568
asVflag for south korea
p5256
(lp5257
g2364
asVflag for peru
p5258
(lp5259
g2959
asVflag for burundi
p5260
(lp5261
g3490
asVsnowman without snow
p5262
(lp5263
g1452
asVhamster face
p5264
(lp5265
g1922
asValgeria
p5266
(lp5267
g4554
asVfire
p5268
(lp5269
g3123
ag1335
ag1335
asVgas
p5270
(lp5271
g3138
asVtogo
p5272
(lp5273
g4591
asVflag for new zealand
p5274
(lp5275
g550
asVflag for jordan
p5276
(lp5277
g4566
asVgeorgia
p5278
(lp5279
g4558
ag3792
asVflag for central african republic
p5280
(lp5281
g1175
asVflag for bahamas
p5282
(lp5283
g3408
asVbill
p5284
(lp5285
g798
ag799
ag800
ag801
ag938
asVstraight ruler
p5286
(lp5287
g663
asVbikini
p5288
(lp5289
g1498
ag1498
asVsmiling face with smiling eyes
p5290
(lp5291
g4359
asVloop
p5292
(lp5293
g2796
ag2797
asVpound
p5294
(lp5295
g801
ag706
asVfleur-de-lis
p5296
(lp5297
g4267
ag4267
asVportugal
p5298
(lp5299
g3820
asVdemon
p5300
(lp5301
g1024
asVup-pointing red triangle\u224a red triangle pointed up
p5302
(lp5303
g2808
asVshamrock
p5304
(lp5305
g1964
ag1964
asVgreenland
p5306
(lp5307
g4559
asVitaly
p5308
(lp5309
g4564
asVshirt
p5310
(lp5311
g1495
ag1837
asV8:00
p5312
(lp5313
g1856
asVclock face nine-thirty\u224a nine-thirty
p5314
(lp5315
g2681
asVeyewear
p5316
(lp5317
g1768
ag1493
ag1494
asVewe
p5318
(lp5319
g1917
asVkimono
p5320
(lp5321
g1497
ag1497
asVtimor-leste
p5322
(lp5323
g1699
asVcayman
p5324
(lp5325
g400
asV9
p5326
(lp5327
g1857
ag2681
ag713
asVhoneybee
p5328
(lp5329
g1954
ag1954
asVsmiling cat face with heart-shaped eyes
p5330
(lp5331
g1894
asVno smoking symbol\u224a no smoking
p5332
(lp5333
g2593
asVchart with upwards trend\u224a chart increasing
p5334
(lp5335
g964
asVsnail
p5336
(lp5337
g1951
ag1951
asVdepartment store
p5338
(lp5339
g3341
asVtuvalu
p5340
(lp5341
g4595
asVleopard
p5342
(lp5343
g1905
ag1905
asVcosta rica
p5344
(lp5345
g3639
asVolder woman
p5346
(lp5347
g28
ag29
ag30
ag31
ag32
asVcityscape
p5348
(lp5349
g3337
asVflag for malaysia
p5350
(lp5351
g2373
asVeuro
p5352
(lp5353
g800
asVflag for italy
p5354
(lp5355
g4564
asVnoodle
p5356
(lp5357
g1536
asVsquared cl
p5358
(lp5359
g723
asVadmission tickets
p5360
(lp5361
g1573
asVel salvador
p5362
(lp5363
g4588
asVpoland
p5364
(lp5365
g1429
asVhorse racing
p5366
(lp5367
g3149
asVmonaco
p5368
(lp5369
g4574
asVflag for mexico
p5370
(lp5371
g2155
asVperson
p5372
(lp5373
g4016
ag1817
ag2763
ag1162
ag1649
ag3178
ag986
ag887
ag4359
ag845
ag1768
ag370
aS'&#x1f618'
p5374
ag989
ag4360
ag2294
ag4361
ag3388
ag3429
ag1273
ag1776
ag3397
ag1861
ag2918
ag1650
ag2644
ag1711
ag997
ag376
ag1651
ag1652
ag1172
ag344
ag469
ag345
ag4925
aS'&#x1f61b'
p5375
ag888
ag3596
ag5090
ag3179
ag1426
ag3030
ag2093
ag1653
ag2483
ag1190
ag2051
ag666
ag3986
ag2204
ag2948
ag831
ag3707
ag453
ag2764
ag2457
ag1654
aS'&#x1f627'
p5376
ag2823
ag470
ag2779
ag511
ag1693
ag2649
ag1317
ag1792
ag2951
ag1274
ag1024
ag473
ag474
ag2098
ag1477
ag1275
ag1276
ag1277
ag3308
ag2878
ag1486
ag3101
ag4368
ag2357
ag2165
aS'&#x1f476'
p5377
ag3712
ag2034
ag2303
ag2189
ag411
ag519
ag1278
ag2968
ag2887
ag569
ag1784
ag1279
ag908
ag866
ag3155
ag1793
ag2216
ag2217
ag2129
ag2218
ag394
ag570
ag1743
ag776
ag1746
ag1747
ag1372
ag1414
ag2194
ag5231
ag3102
ag684
ag685
ag686
aS'&#x1f48f'
p5378
ag2921
ag2121
ag1291
ag1874
ag1875
ag1004
ag1876
ag1877
ag1439
ag1098
ag1878
ag1879
ag1880
ag2219
ag2220
ag1889
ag2221
ag2222
ag884
ag2223
ag2224
ag1152
ag2225
ag499
aS'&#x1f442'
p5379
ag4025
ag3040
ag3426
ag4513
aS'&#x1f445'
p5380
ag1656
ag1480
ag1101
ag1832
ag2411
ag1051
ag2039
ag1184
ag875
ag512
ag891
ag334
ag2393
ag1492
ag814
ag3353
ag1659
ag346
ag1292
ag1294
ag1295
ag1296
ag1297
ag1298
ag1299
ag1493
ag1445
ag1495
ag385
ag1496
ag1497
ag1498
ag1499
ag1500
ag1501
ag689
ag1503
ag1504
ag1505
ag1506
ag1507
ag1508
ag1509
ag1312
ag1510
ag1511
ag1512
ag1513
ag2009
ag1300
ag581
ag3676
ag1837
ag1453
ag1454
ag3111
ag3149
ag3150
ag2233
ag1165
ag380
ag381
ag3151
ag863
asVmassage
p5381
(lp5382
g908
asVentry
p5383
(lp5384
g2592
ag2174
asVchemistry
p5385
(lp5386
g1346
asVhotdog
p5387
(lp5388
g1970
asVnext scene
p5389
(lp5390
g1127
asVbaby chick
p5391
(lp5392
g1933
asVeyeglasses
p5393
(lp5394
g1493
asVbearer
p5395
(lp5396
g779
ag2016
ag780
asVscotland
p5397
(lp5398
g2906
asVroasted
p5399
(lp5400
g1054
asVsleepy face
p5401
(lp5402
g344
asVevergreen tree\u224a evergreen
p5403
(lp5404
g1378
asVsandal
p5405
(lp5406
g1506
asVcup
p5407
(lp5408
g426
ag1551
asVadmission
p5409
(lp5410
g1573
ag1574
asVscales
p5411
(lp5412
g1347
ag2141
asVback with leftwards arrow above\u224a back arrow
p5413
(lp5414
g1119
asVandorra
p5415
(lp5416
g4342
asVincoming envelope
p5417
(lp5418
g941
asVcherries
p5419
(lp5420
g1525
asVflag for pakistan
p5421
(lp5422
g3745
asVkeycap digit six
p5423
(lp5424
g711
asVinput
p5425
(lp5426
g715
ag716
ag717
ag718
ag719
asVexcited
p5427
(lp5428
g1184
ag875
asVsurprised
p5429
(lp5430
g1172
ag1897
asVcard file box
p5431
(lp5432
g974
asVaustralia
p5433
(lp5434
g543
ag4049
asVcouple
p5435
(lp5436
g684
ag685
ag686
ag5378
ag2921
ag3104
ag645
ag4370
asVgame
p5437
(lp5438
g1558
ag1577
ag1581
ag1582
ag1583
ag1584
ag1585
ag1586
ag1227
ag1367
ag1588
ag1589
ag1590
ag1436
ag2255
ag2656
ag2376
ag1240
ag1591
ag482
asVemoji modifier fitzpatrick type-1-2\u224a skin type-1-2
p5439
(lp5440
g2069
asVflag for kenya
p5441
(lp5442
g4567
asVwings
p5443
(lp5444
g938
asVglittery
p5445
(lp5446
g508
asVmultiple musical notes\u224a musical notes
p5447
(lp5448
g1600
asVkyrgyzstan
p5449
(lp5450
g2816
asVsemi
p5451
(lp5452
g654
asVpuck
p5453
(lp5454
g1585
asVfries
p5455
(lp5456
g1382
asVoncoming
p5457
(lp5458
g3135
ag2997
ag1803
ag2999
asVsnowboard
p5459
(lp5460
g1454
asVheart
p5461
(lp5462
g370
ag5374
ag1894
ag2921
ag1480
ag1101
ag1832
ag2411
ag1051
ag2039
ag1184
ag875
ag512
ag891
ag334
ag2393
ag1492
ag814
ag3353
ag848
ag1659
ag2255
asVbamboo
p5463
(lp5464
g480
asVmahjong
p5465
(lp5466
g1591
asVsmiling face with halo
p5467
(lp5468
g1273
asVclosed lock with key
p5469
(lp5470
g613
asVback
p5471
(lp5472
g1119
asVphone
p5473
(lp5474
g1610
ag1102
ag915
ag1007
ag1639
ag1641
ag1642
ag1643
asVlips
p5475
(lp5476
g1656
ag1480
asVpalm
p5477
(lp5478
g1379
asVcandy
p5479
(lp5480
g1548
ag1548
ag1224
asVcd
p5481
(lp5482
g923
ag924
asVcandle
p5483
(lp5484
g1619
ag1619
asVnicaragua
p5485
(lp5486
g4580
asVflag for tunisia
p5487
(lp5488
g4593
asVflag for germany
p5489
(lp5490
g4552
asVclock face eight oclock\u224a eight o\u2019clock
p5491
(lp5492
g1856
asVsun with face
p5493
(lp5494
g1997
asVopen book
p5495
(lp5496
g928
asVpet
p5497
(lp5498
g1673
ag1674
ag842
ag1902
ag1922
ag1923
ag1924
asVspouting
p5499
(lp5500
g1943
asVnext track
p5501
(lp5502
g1127
asVreligion
p5503
(lp5504
g1510
ag3342
ag2858
ag3343
ag2604
ag1411
ag1760
ag4103
ag4266
ag2201
ag1681
ag2382
ag3938
ag2859
ag751
asVpen
p5505
(lp5506
g952
ag953
ag869
ag1627
asVradio button
p5507
(lp5508
g1714
asVtemple
p5509
(lp5510
g3343
asVcarousel horse
p5511
(lp5512
g3344
asVzzz
p5513
(lp5514
g345
ag346
asVufo
p5515
(lp5516
g1276
ag1277
asVmartin
p5517
(lp5518
g2863
asVflag for uruguay
p5519
(lp5520
g3027
asVoncoming bus
p5521
(lp5522
g3135
asVfuneral urn
p5523
(lp5524
g1637
asVdepartures
p5525
(lp5526
g3145
asVsanta
p5527
(lp5528
g569
asVthumbs down sign\u224a thumbs down
p5529
(lp5530
g2221
asVweary cat face
p5531
(lp5532
g1897
asVflag for cambodia
p5533
(lp5534
g2599
asVwrapped present
p5535
(lp5536
g582
asVsquared cjk unified ideograph-7121\u224a squared negation ideograph
p5537
(lp5538
g491
asVmobile phone off
p5539
(lp5540
g1643
asVgraduation
p5541
(lp5542
g571
asVpushpin
p5543
(lp5544
g968
ag968
ag969
asVrock-on
p5545
(lp5546
g1879
asVbanknote with yen sign\u224a yen banknote
p5547
(lp5548
g798
asVdialog
p5549
(lp5550
g1298
ag2697
asVfirework sparkler\u224a sparkler
p5551
(lp5552
g575
asVgermany
p5553
(lp5554
g4552
asVflag for libya
p5555
(lp5556
g3719
asVchevron
p5557
(lp5558
g335
asVface with head-bandage
p5559
(lp5560
g666
asVcrystal ball
p5561
(lp5562
g1280
asVflag for guam
p5563
(lp5564
g4561
asVflag for equatorial guinea
p5565
(lp5566
g4560
asVflag for venezuela
p5567
(lp5568
g1198
asVstudio microphone
p5569
(lp5570
g557
asVmountain railway
p5571
(lp5572
g2995
asVfrog
p5573
(lp5574
g1938
asVblack up-pointing double triangle\u224a fast up button
p5575
(lp5576
g1133
asVframes
p5577
(lp5578
g1613
asVflag for yemen
p5579
(lp5580
g4598
asVtada
p5581
(lp5582
g577
asVcabo
p5583
(lp5584
g2321
asVflag for turkmenistan
p5585
(lp5586
g4592
asVmadagascar
p5587
(lp5588
g2931
asVjockey
p5589
(lp5590
g3149
asVcomputer
p5591
(lp5592
g917
ag522
ag918
ag1612
ag919
ag920
ag921
ag922
ag923
ag924
asVi
p5593
(lp5594
g726
asVflag for mauritania
p5595
(lp5596
g4575
asVdoll
p5597
(lp5598
g481
asVquestion
p5599
(lp5600
g699
ag700
ag701
asVfast
p5601
(lp5602
g1126
asVflag for niue
p5603
(lp5604
g602
asVcamera
p5605
(lp5606
g1398
ag1616
ag1616
ag525
ag1617
ag1640
asVsuit
p5607
(lp5608
g3102
ag1436
ag2255
ag2656
ag2376
asVforward
p5609
(lp5610
g1126
asVfamily: man
p5611
(lp5612
g2879
ag3105
ag2880
ag2881
ag3106
ag2882
ag3107
ag2883
ag2884
ag3108
asVflag for european union
p5613
(lp5614
g4555
asVjewish
p5615
(lp5616
g3343
ag4266
asVrelaxed
p5617
(lp5618
g4361
asVamusement park
p5619
(lp5620
g2200
ag2029
asVpeace symbol
p5621
(lp5622
g2793
asVt-shirt
p5623
(lp5624
g1495
asVlink
p5625
(lp5626
g971
ag1633
asVperson with folded hands
p5627
(lp5628
g143
ag144
ag145
ag146
ag147
asVflag for slovakia
p5629
(lp5630
g4585
asVpenguin
p5631
(lp5632
g1936
ag1936
asVshooting star
p5633
(lp5634
g1999
asVwhite right pointing backhand index\u224a backhand index pointing right
p5635
(lp5636
g1875
asVskull
p5637
(lp5638
g2098
ag2098
ag1477
asVreload
p5639
(lp5640
g1117
asVflag for tajikistan
p5641
(lp5642
g2111
asVaccess
p5643
(lp5644
g1702
asVmantelpiece clock
p5645
(lp5646
g1571
asVup
p5647
(lp5648
g1004
ag1876
ag1889
ag1048
ag734
asVus
p5649
(lp5650
g3545
ag2490
asVanguished face
p5651
(lp5652
g5376
asVum
p5653
(lp5654
g845
asVmorocco
p5655
(lp5656
g4573
asVuk
p5657
(lp5658
g2906
asVguyana
p5659
(lp5660
g1467
asVwine glass
p5661
(lp5662
g669
asVfried
p5663
(lp5664
g657
asVtanzania
p5665
(lp5666
g2181
asVaerial
p5667
(lp5668
g3000
asVchad
p5669
(lp5670
g4590
asVherzegovina
p5671
(lp5672
g1081
asVwarning
p5673
(lp5674
g3152
asVflag for solomon islands
p5675
(lp5676
g1393
asVcurl
p5677
(lp5678
g933
ag2796
ag2797
asVrainbow
p5679
(lp5680
g2008
ag2008
asVlemon
p5681
(lp5682
g1519
ag1519
asVpeach
p5683
(lp5684
g1524
ag1524
asVpeace
p5685
(lp5686
g1937
ag2793
asVclub
p5687
(lp5688
g2376
asVunamused face
p5689
(lp5690
g5090
asVbeer mug
p5691
(lp5692
g1553
asVaerial tramway
p5693
(lp5694
g3000
asVdepartment
p5695
(lp5696
g3341
asVjapanese ogre\u224a ogre
p5697
(lp5698
g473
asVmountain bicyclist
p5699
(lp5700
g318
ag319
ag320
ag321
ag322
asVfearful face
p5701
(lp5702
g2823
asVstar of david
p5703
(lp5704
g4266
asVpineapple
p5705
(lp5706
g1521
ag1521
asVsports medal
p5707
(lp5708
g1575
asVlucia
p5709
(lp5710
g4569
asVinput symbol for latin letters\u224a input latin letters
p5711
(lp5712
g719
asVinsect
p5713
(lp5714
g1952
ag1953
ag1954
ag331
ag1155
asVflag for zimbabwe
p5715
(lp5716
g4600
asVcaribbean
p5717
(lp5718
g1072
asVclue
p5719
(lp5720
g1629
asVflag for indonesia
p5721
(lp5722
g4563
asVdesert
p5723
(lp5724
g1976
ag1976
ag1029
asVmaldives
p5725
(lp5726
g4577
asVexpressionless
p5727
(lp5728
g2918
asVdvd
p5729
(lp5730
g923
ag924
ag924
asVclenched
p5731
(lp5732
g2222
ag884
asVcooked
p5733
(lp5734
g1534
asVwaxing
p5735
(lp5736
g1984
ag1986
asVbeverage
p5737
(lp5738
g838
ag426
ag1551
ag669
asVwater buffalo
p5739
(lp5740
g1911
asVbuffalo
p5741
(lp5742
g1911
asVscroll
p5743
(lp5744
g934
ag934
asVonce
p5745
(lp5746
g1124
asVbanknote with dollar sign\u224a dollar banknote
p5747
(lp5748
g799
asVflag for albania
p5749
(lp5750
g4548
asVoffice building
p5751
(lp5752
g911
asVtokelau
p5753
(lp5754
g3573
asVtobago
p5755
(lp5756
g2941
asVsplashing
p5757
(lp5758
g1295
asValien
p5759
(lp5760
g1276
ag1277
asVflag for belarus
p5761
(lp5762
g1045
asVmusical keyboard
p5763
(lp5764
g1607
asVgolfer
p5765
(lp5766
g3676
asVmagnifying
p5767
(lp5768
g671
ag672
asVbeach with umbrella
p5769
(lp5770
g851
asVarticulated lorry
p5771
(lp5772
g654
asVdown-pointing red triangle\u224a red triangle pointed down
p5773
(lp5774
g2468
asVflag for liechtenstein
p5775
(lp5776
g4570
asVe-mail
p5777
(lp5778
g939
ag940
ag941
ag942
asVflag for canary islands
p5779
(lp5780
g3167
asVmosque
p5781
(lp5782
g2858
ag2858
asVyoung
p5783
(lp5784
g1963
asVmahjong tile red dragon\u224a mahjong red dragon
p5785
(lp5786
g1591
asVmobile phone with rightwards arrow at left\u224a mobile phone with arrow
p5787
(lp5788
g1102
asVflag for ethiopia
p5789
(lp5790
g3871
asVsent
p5791
(lp5792
g942
ag943
asV11:30
p5793
(lp5794
g2683
asVflag for uzbekistan
p5795
(lp5796
g4294
asVgarden
p5797
(lp5798
g3339
asVkitts
p5799
(lp5800
g3068
asVdessert
p5801
(lp5802
g476
ag1541
ag1542
ag1543
ag1544
ag1545
ag572
ag1546
ag1547
ag1548
ag1224
ag1549
asVkeycap asterisk
p5803
(lp5804
g2632
asVwave
p5805
(lp5806
g2223
ag1457
ag1594
asVchart with downwards trend\u224a chart decreasing
p5807
(lp5808
g965
asVwavy
p5809
(lp5810
g761
asVolder man\u224a old man
p5811
(lp5812
g2357
asVcurry and rice\u224a curry rice
p5813
(lp5814
g1535
asVmauritania
p5815
(lp5816
g4575
asVcat face with wry smile
p5817
(lp5818
g1895
asVdragon face
p5819
(lp5820
g1941
asVcurly loop
p5821
(lp5822
g2796
asVnotes
p5823
(lp5824
g1600
asVmontserrat
p5825
(lp5826
g3620
asVextraterrestrial alien\u224a alien
p5827
(lp5828
g1276
asVflag for christmas island
p5829
(lp5830
g2414
asVwhite medium square
p5831
(lp5832
g2801
asVsatellite antenna
p5833
(lp5834
g925
asVclock face eleven oclock\u224a eleven o\u2019clock
p5835
(lp5836
g1858
asVcrying face
p5837
(lp5838
g2764
asVhindu
p5839
(lp5840
g4103
asVvideo
p5841
(lp5842
g1604
ag1614
ag1615
ag1616
ag525
ag1617
ag1618
asVtrackball
p5843
(lp5844
g920
ag920
asVflag for dominica
p5845
(lp5846
g4553
asVanticlockwise downwards and upwards open circle arrows\u224a anticlockwise arrows button
p5847
(lp5848
g1118
asVspaghetti
p5849
(lp5850
g1537
ag1537
asVindex
p5851
(lp5852
g1874
ag1875
ag1004
ag1876
ag1439
ag783
ag963
asVsausage
p5853
(lp5854
g1970
asVrelieved face
p5855
(lp5856
g4925
asVwaning
p5857
(lp5858
g1062
ag1989
asVpaddle
p5859
(lp5860
g1586
asVflag for nepal
p5861
(lp5862
g4581
asVcell
p5863
(lp5864
g1610
ag1102
ag1639
ag1641
ag1642
ag1643
asVdark sunglasses\u224a sunglasses
p5865
(lp5866
g1494
asVclipboard
p5867
(lp5868
g967
ag967
asVtwins
p5869
(lp5870
g685
ag2551
asVbird
p5871
(lp5872
g1935
ag1935
ag1937
asVbody
p5873
(lp5874
g2098
ag1477
ag570
ag1743
ag1291
ag1874
ag1875
ag1004
ag1876
ag1877
ag1439
ag1098
ag1878
ag1879
ag1880
ag2219
ag2220
ag1889
ag2221
ag2222
ag884
ag2223
ag2224
ag1152
ag2225
ag499
ag5379
ag4025
ag3040
ag3426
ag4513
ag5380
ag1656
asVbrunei
p5875
(lp5876
g2909
asVleg
p5877
(lp5878
g1140
asVsint
p5879
(lp5880
g1072
ag4063
asVpunch
p5881
(lp5882
g2222
ag884
asVleo
p5883
(lp5884
g373
ag2553
ag2553
asVsquared cjk unified ideograph-5272\u224a squared divide ideograph
p5885
(lp5886
g490
asVshaved ice
p5887
(lp5888
g1542
asVflag for oman
p5889
(lp5890
g596
asVflag for chad
p5891
(lp5892
g4590
asVcyclist
p5893
(lp5894
g380
ag381
asVcloud with rain
p5895
(lp5896
g2005
asVflag for cook islands
p5897
(lp5898
g2752
asVmetro
p5899
(lp5900
g3131
ag3131
asVreceive
p5901
(lp5902
g1102
ag941
ag944
asV5:00
p5903
(lp5904
g1853
asV30
p5905
(lp5906
g1720
ag2308
ag2465
ag2090
ag340
ag2678
ag2679
ag2148
ag2680
ag2681
ag2682
ag2683
asVcoffin
p5907
(lp5908
g1636
ag1636
asVflag for afghanistan
p5909
(lp5910
g2829
asVpopcorn
p5911
(lp5912
g1973
ag1973
asVhoneypot
p5913
(lp5914
g795
asVvideo game
p5915
(lp5916
g1588
ag1588
ag1589
asVmedium white circle\u224a white circle
p5917
(lp5918
g2811
asVangry face
p5919
(lp5920
g2951
asVabcd
p5921
(lp5922
g716
asVapple
p5923
(lp5924
g1522
ag892
asVdanger
p5925
(lp5926
g366
asVegypt
p5927
(lp5928
g3211
asVtristan da cunha
p5929
(lp5930
g4589
asVflag for cameroon
p5931
(lp5932
g4549
asVaustria
p5933
(lp5934
g2324
asVcupid
p5935
(lp5936
g1101
asVivory coast
p5937
(lp5938
g2160
asVbaby bottle
p5939
(lp5940
g1550
asVviet nam
p5941
(lp5942
g2673
asVclockwise
p5943
(lp5944
g1117
ag1123
ag1124
asVcloud
p5945
(lp5946
g2000
ag2000
ag2001
ag528
ag2002
ag2003
ag2004
ag2005
ag1449
ag2006
ag456
ag2007
ag903
asVrightwards arrow with hook\u224a left arrow curving right
p5947
(lp5948
g1114
asVsaudi arabia
p5949
(lp5950
g4096
asVusa
p5951
(lp5952
g3545
ag2490
asVjapanese dolls
p5953
(lp5954
g481
asVfisted hand sign
p5955
(lp5956
g243
ag244
ag245
ag246
ag247
asVflag for u.s. outlying islands
p5957
(lp5958
g3545
asVface massage
p5959
(lp5960
g908
ag93
ag94
ag95
ag96
ag97
asVeleven
p5961
(lp5962
g1858
ag2683
asVsnow capped mountain\u224a snow-capped mountain
p5963
(lp5964
g1448
asVbroken heart
p5965
(lp5966
g1051
asVcrab
p5967
(lp5968
g1950
ag1950
ag2552
asVvehicle
p5969
(lp5970
g1824
ag1326
ag1178
ag1179
ag3130
ag3131
ag441
ag3132
ag3133
ag1460
ag2995
ag2996
ag3134
ag3135
ag360
ag1361
ag896
ag3123
ag2339
ag2997
ag3136
ag1803
ag2998
ag2999
ag1016
ag3124
ag654
ag3137
ag379
ag1195
ag2665
ag3140
ag3141
ag2562
ag3142
ag2579
ag3143
ag3144
ag3145
ag2379
ag3146
ag433
ag3147
ag3000
ag3148
ag2207
ag382
asVface savouring delicious food
p5971
(lp5972
g845
asVpencil
p5973
(lp5974
g951
ag951
ag956
asVcrossed flags
p5975
(lp5976
g493
asVtangerine
p5977
(lp5978
g1518
ag1518
asVwaving black flag
p5979
(lp5980
g1645
asVtrain
p5981
(lp5982
g1824
ag1326
ag1178
ag1179
ag3130
ag3130
ag3132
ag3139
asVpopper
p5983
(lp5984
g577
asVrabbit
p5985
(lp5986
g1923
ag1924
ag1924
asVbaby
p5987
(lp5988
g5377
ag5377
ag33
ag34
ag35
ag36
ag37
ag1279
ag1932
ag1933
ag1934
ag1550
ag2792
asVteller
p5989
(lp5990
g1066
asVflag for israel
p5991
(lp5992
g4541
asVbanknote with euro sign\u224a euro banknote
p5993
(lp5994
g800
asVcontrol knobs
p5995
(lp5996
g1601
asVpackage
p5997
(lp5998
g945
ag945
asVpolynesia
p5999
(lp6000
g2864
asVdonut
p6001
(lp6002
g1544
asVarcher
p6003
(lp6004
g1103
ag2554
asVcrossed
p6005
(lp6006
g1631
ag1122
ag493
asVheart with ribbon
p6007
(lp6008
g1492
asVkiss: woman
p6009
(lp6010
g3103
ag4369
asVclock face six-thirty\u224a six-thirty
p6011
(lp6012
g2679
asVflag for st. kitts & nevis
p6013
(lp6014
g3068
asVsaba
p6015
(lp6016
g1072
asVplug
p6017
(lp6018
g367
asVcontrol
p6019
(lp6020
g1601
ag648
asVmelilla
p6021
(lp6022
g2670
asVpatrol
p6023
(lp6024
g2339
asVflag for hungary
p6025
(lp6026
g4562
asVlock
p6027
(lp6028
g1625
ag1625
ag1626
ag1627
ag613
ag1628
ag1629
asVdiamond shape with a dot inside\u224a diamond with a dot
p6029
(lp6030
g1302
asVpad
p6031
(lp6032
g961
ag962
asVhalloween
p6033
(lp6034
g414
asVhigh
p6035
(lp6036
g1252
asVstreamer
p6037
(lp6038
g578
asVascension
p6039
(lp6040
g2101
asVtriangle
p6041
(lp6042
g972
ag1125
ag1127
ag1128
ag1129
ag1131
asVtao
p6043
(lp6044
g1681
asVtrumpet
p6045
(lp6046
g1608
ag1608
asVsleeping face
p6047
(lp6048
g345
asVtrident emblem
p6049
(lp6050
g1329
asVunited
p6051
(lp6052
g811
ag2906
ag3545
ag3546
ag2490
asVsix
p6053
(lp6054
g1854
ag2679
ag711
asVhigh-speed train with bullet nose
p6055
(lp6056
g1179
asVlamp
p6057
(lp6058
g1561
asVanimal
p6059
(lp6060
g1655
ag1892
ag1893
ag1894
ag1895
ag1896
ag1897
ag1898
ag767
ag1213
ag1214
ag1215
ag1899
ag1900
ag1673
ag1674
ag1675
ag1901
ag842
ag1902
ag373
ag1903
ag1904
ag1905
ag1906
ag1907
ag1908
ag1909
ag1910
ag1911
ag1912
ag1913
ag1914
ag1915
ag1916
ag1417
ag1917
ag1088
ag1918
ag1320
ag1919
ag1920
ag1921
ag1423
ag1922
ag1923
ag1924
ag1925
ag1926
ag1927
ag505
ag1928
ag1929
ag1930
ag1931
ag1932
ag1933
ag1934
ag1935
ag1936
ag1937
ag1938
ag1939
ag1940
ag779
ag1941
ag1942
ag1943
ag1944
ag786
ag1945
ag1946
ag1947
ag1948
ag1949
ag1950
ag1951
ag1952
ag1953
ag1954
ag331
ag1155
ag1156
ag1955
asVno bicycles
p6061
(lp6062
g382
asVsquared cjk unified ideograph-6708\u224a squared moon ideograph
p6063
(lp6064
g486
asVmalta
p6065
(lp6066
g4576
asVwatch
p6067
(lp6068
g1567
ag1567
asVflag for greenland
p6069
(lp6070
g4559
asVcarp streamer
p6071
(lp6072
g578
asVbuilding construction
p6073
(lp6074
g3336
asVnotebook
p6075
(lp6076
g926
ag931
ag931
ag932
asVtaco
p6077
(lp6078
g1971
ag1971
asVmultiplication
p6079
(lp6080
g2794
ag746
asVfirst quarter moon with face
p6081
(lp6082
g1992
asVtomato
p6083
(lp6084
g1527
ag1527
asVeritrea
p6085
(lp6086
g2136
asVflag for kosovo
p6087
(lp6088
g4597
asVschool satchel\u224a school backpack
p6089
(lp6090
g429
asVrobot
p6091
(lp6092
g3308
asVflag for algeria
p6093
(lp6094
g4554
asVwomans boots\u224a woman\u2019s boot
p6095
(lp6096
g1507
asVelectric light bulb\u224a light bulb
p6097
(lp6098
g1301
asVnecklace
p6099
(lp6100
g1510
asVkeeling
p6101
(lp6102
g2500
asVwaving white flag
p6103
(lp6104
g1646
asVflag for heard & mcdonald islands
p6105
(lp6106
g3033
asVmute
p6107
(lp6108
g1592
ag1597
asVflag for myanmar
p6109
(lp6110
g616
asVmenorah
p6111
(lp6112
g751
asVmotorcycle
p6113
(lp6114
g3151
asVhorns
p6115
(lp6116
g1274
ag1879
asVdo not litter symbol\u224a no littering
p6117
(lp6118
g2541
asVflag for sierra leone
p6119
(lp6120
g4586
asVspeech balloon
p6121
(lp6122
g1298
asVbanknote
p6123
(lp6124
g798
ag799
ag800
ag801
ag938
asVlithuania
p6125
(lp6126
g1256
asVrepublic of the congo
p6127
(lp6128
g1095
asVreversed hand with middle finger extended
p6129
(lp6130
g188
ag189
ag190
ag191
ag192
asVturban
p6131
(lp6132
g2189
asVpuerto rico
p6133
(lp6134
g4582
asVorange
p6135
(lp6136
g1518
ag929
ag2806
ag2807
asVderelict
p6137
(lp6138
g3338
asVflex
p6139
(lp6140
g1291
asVprayer beads
p6141
(lp6142
g1510
asVcitrus
p6143
(lp6144
g1519
asVoutlined
p6145
(lp6146
g4361
ag701
ag702
ag2810
asVelephant
p6147
(lp6148
g1919
ag1919
asVbat
p6149
(lp6150
g1583
ag1586
asVbilliard
p6151
(lp6152
g1581
asVsnake
p6153
(lp6154
g779
ag779
ag780
asVkiss
p6155
(lp6156
g5374
ag989
ag4360
ag2294
ag1896
ag5378
ag5378
ag3103
ag2587
ag4369
ag1480
asVmaple leaf
p6157
(lp6158
g1965
asVclock face five-thirty\u224a five-thirty
p6159
(lp6160
g2678
asVheadphone
p6161
(lp6162
g1603
ag1603
asVliberia
p6163
(lp6164
g4571
asVflag in hole
p6165
(lp6166
g681
asVrice ball
p6167
(lp6168
g475
asVtram
p6169
(lp6170
g1326
ag3133
ag3133
ag2996
ag360
asVkeycap
p6171
(lp6172
g706
ag2632
ag707
ag708
ag397
ag709
ag341
ag710
ag711
ag712
ag660
ag713
ag714
asValien monster
p6173
(lp6174
g1277
asVconvenience store
p6175
(lp6176
g444
asVcircled ideograph accept\u224a circled accept ideograph
p6177
(lp6178
g736
asVlatvia
p6179
(lp6180
g4572
asVmode
p6181
(lp6182
g1642
asVcrossing
p6183
(lp6184
g2122
asVclapper board
p6185
(lp6186
g980
asVtropical fish
p6187
(lp6188
g1946
asVtray
p6189
(lp6190
g943
ag944
asVglasses
p6191
(lp6192
g1768
ag1493
ag1494
asVnew moon symbol\u224a new moon
p6193
(lp6194
g1983
asVbeginner
p6195
(lp6196
g335
asVflag for el salvador
p6197
(lp6198
g4588
asVglobe
p6199
(lp6200
g1725
ag1726
ag543
ag881
asVserbia
p6201
(lp6202
g2851
asVbooks
p6203
(lp6204
g930
ag930
asVflag for turks & caicos islands
p6205
(lp6206
g3558
asVpopping
p6207
(lp6208
g1800
asVpotable water symbol\u224a potable water
p6209
(lp6210
g2791
asVopen file folder
p6211
(lp6212
g958
asVentertainment
p6213
(lp6214
g1312
ag3344
ag2200
ag2029
ag3345
ag1557
ag834
ag414
ag573
ag574
ag575
ag878
ag576
ag577
ag417
ag479
ag481
ag578
ag579
ag580
ag582
ag1573
ag1574
ag1587
ag1367
ag1588
ag1589
ag1590
ag1240
ag482
ag1252
ag496
ag1598
ag1599
ag1600
ag1602
ag1603
ag1604
ag1605
ag1606
ag1607
ag1608
ag1609
ag921
ag924
ag1398
ag1613
ag1614
ag980
ag1615
ag1616
ag1617
ag1618
ag1640
asVpitcairn
p6215
(lp6216
g3487
asVfile cabinet
p6217
(lp6218
g975
asVdelivery truck
p6219
(lp6220
g3124
asVprincipe
p6221
(lp6222
g3868
asVred
p6223
(lp6224
g1792
ag1522
ag1591
ag483
ag1132
ag325
ag2808
ag2468
ag2813
asVclipperton
p6225
(lp6226
g2826
asVumbrella
p6227
(lp6228
g851
ag2009
ag2010
ag2010
ag2011
ag1243
asVrowboat
p6229
(lp6230
g3140
ag3140
ag283
ag284
ag285
ag286
ag287
asVconfounded face
p6231
(lp6232
g2948
asVemoji modifier
p6233
(lp6234
g2069
ag2070
ag2071
ag819
ag2072
asVkiribati
p6235
(lp6236
g4272
asVflag for macau
p6237
(lp6238
g2066
asVprincess
p6239
(lp6240
g1278
ag1278
ag63
ag64
ag65
ag66
ag67
asVfitzpatrick
p6241
(lp6242
g2069
ag2070
ag2071
ag819
ag2072
asVflag for senegal
p6243
(lp6244
g4587
asVtimer
p6245
(lp6246
g1565
ag1566
ag1570
asVdavid
p6247
(lp6248
g4266
asVblack telephone\u224a telephone
p6249
(lp6250
g915
asVpudding
p6251
(lp6252
g1549
asVflag for timor-leste
p6253
(lp6254
g1699
asVsouth
p6255
(lp6256
g1107
ag3792
ag2364
ag3022
ag3917
asVmilitary medal
p6257
(lp6258
g584
asVbouquet
p6259
(lp6260
g1514
ag1514
asVsvalbard
p6261
(lp6262
g328
asVflexed biceps
p6263
(lp6264
g1291
ag163
ag164
ag165
ag166
ag167
asVflag for romania
p6265
(lp6266
g3493
asVsquared cjk unified ideograph-6e80\u224a squared fullness ideograph
p6267
(lp6268
g743
asVfilm frames
p6269
(lp6270
g1613
asVmonkey
p6271
(lp6272
g1213
ag1214
ag1215
ag1899
ag1900
ag1900
asVprivacy
p6273
(lp6274
g1627
asVfestival
p6275
(lp6276
g481
asVguiana
p6277
(lp6278
g2862
asVflag for djibouti
p6279
(lp6280
g2272
asVdominica
p6281
(lp6282
g4553
asVwrapped
p6283
(lp6284
g582
asVslovakia
p6285
(lp6286
g4585
asVsquared free
p6287
(lp6288
g725
asVshell
p6289
(lp6290
g1949
asVgear
p6291
(lp6292
g1344
ag1344
asVmariana
p6293
(lp6294
g3722
asVblack square for stop\u224a stop button
p6295
(lp6296
g1771
asVslider
p6297
(lp6298
g828
asVflag for gabon
p6299
(lp6300
g4557
asVflag for panama
p6301
(lp6302
g531
asVsao tome
p6303
(lp6304
g3868
asVgoblin
p6305
(lp6306
g474
asVwhite frowning face\u224a frowning face
p6307
(lp6308
g3986
asVunamused
p6309
(lp6310
g5090
asVtanabata tree
p6311
(lp6312
g479
asVmotor boat
p6313
(lp6314
g3142
asVfuelpump
p6315
(lp6316
g3138
asVflag for mozambique
p6317
(lp6318
g4578
asVsplayed
p6319
(lp6320
g1880
asVbed
p6321
(lp6322
g348
ag348
asVbee
p6323
(lp6324
g1954
asVclaim
p6325
(lp6326
g1057
asVsweden
p6327
(lp6328
g4584
asVsavouring
p6329
(lp6330
g845
asVlight
p6331
(lp6332
g1195
ag2348
ag2349
ag1619
ag1301
ag1337
ag483
asVflag for sri lanka
p6333
(lp6334
g3238
asVflower playing cards
p6335
(lp6336
g482
asVtabs
p6337
(lp6338
g936
asVuganda
p6339
(lp6340
g4596
asVmedium black circle\u224a black circle
p6341
(lp6342
g2812
asVblack spade suit\u224a spade suit
p6343
(lp6344
g1436
asVclosed mailbox with raised flag
p6345
(lp6346
g946
asVflag for st. martin
p6347
(lp6348
g2863
asVmicrophone
p6349
(lp6350
g557
ag1602
ag1602
asVmic
p6351
(lp6352
g557
ag1602
asVbilliards
p6353
(lp6354
g1581
asVtokyo tower
p6355
(lp6356
g2992
asVbus
p6357
(lp6358
g3134
ag3134
ag3135
ag360
ag1731
ag1361
asVbarber pole
p6359
(lp6360
g3162
asVblack question mark ornament\u224a question mark
p6361
(lp6362
g700
asVoncoming automobile
p6363
(lp6364
g2999
asVanger symbol
p6365
(lp6366
g1292
asVkazakhstan
p6367
(lp6368
g2625
asVeight
p6369
(lp6370
g1856
ag2680
ag1581
ag660
asVhandbag
p6371
(lp6372
g1501
ag1501
asVbath\u224a person taking bath
p6373
(lp6374
g1563
asVcabinet
p6375
(lp6376
g975
asVmedal
p6377
(lp6378
g584
ag1575
asVvolume
p6379
(lp6380
g1592
ag1593
ag1594
ag1252
asVgreen apple
p6381
(lp6382
g892
asVeject
p6383
(lp6384
g2352
asVcloud with tornado\u224a tornado
p6385
(lp6386
g456
asVurn
p6387
(lp6388
g1637
asVscales\u224a balance scale
p6389
(lp6390
g1347
asVcouple with heart: woman
p6391
(lp6392
g3104
ag4370
asVface
p6393
(lp6394
g4016
ag1817
ag2763
ag1162
ag1649
ag3178
ag986
ag887
ag4359
ag845
ag1768
ag370
ag5374
ag989
ag4360
ag2294
ag4361
ag3388
ag3429
ag1273
ag1776
ag3397
ag1861
ag2918
ag1650
ag2644
ag1711
ag997
ag376
ag1651
ag1652
ag1172
ag344
ag469
ag345
ag4925
ag5375
ag888
ag3596
ag5090
ag3179
ag1426
ag3030
ag2093
ag1653
ag2483
ag1190
ag2051
ag666
ag3986
ag2204
ag2948
ag831
ag3707
ag453
ag2764
ag2457
ag1654
ag5376
ag2823
ag470
ag2779
ag511
ag1693
ag2649
ag1317
ag1792
ag2951
ag1274
ag1024
ag473
ag474
ag2098
ag1477
ag1275
ag1276
ag1277
ag3308
ag1290
ag1655
ag1892
ag1893
ag1894
ag1895
ag1896
ag1897
ag1898
ag767
ag1213
ag1214
ag1215
ag519
ag1279
ag776
ag3426
ag1899
ag1673
ag1901
ag842
ag373
ag1903
ag1906
ag1908
ag1909
ag1913
ag1916
ag1920
ag1922
ag1923
ag1926
ag505
ag1938
ag1941
ag1943
ag1991
ag1992
ag1993
ag1996
ag1997
ag903
ag566
asVface with stuck-out tongue
p6395
(lp6396
g5375
asVlowered
p6397
(lp6398
g947
ag949
asVguinea
p6399
(lp6400
g639
ag4560
ag3613
ag551
asVeuropean castle\u224a castle
p6401
(lp6402
g2197
asVflag for cyprus
p6403
(lp6404
g357
asVpainting
p6405
(lp6406
g913
ag834
ag954
asVflag for nicaragua
p6407
(lp6408
g4580
asVsenegal
p6409
(lp6410
g4587
asVlink symbol\u224a link
p6411
(lp6412
g1633
asVflag for tristan da cunha
p6413
(lp6414
g4589
asVchicken
p6415
(lp6416
g1930
ag1930
ag1140
asVpause
p6417
(lp6418
g1128
ag1442
asVflag for cuba
p6419
(lp6420
g4550
asVscorpion
p6421
(lp6422
g1955
ag1955
ag2289
asVpolice officer
p6423
(lp6424
g2034
ag43
ag44
ag45
ag46
ag47
asVflag for bolivia
p6425
(lp6426
g2497
asVvirgo
p6427
(lp6428
g1486
ag1487
ag1487
asVbrazzaville
p6429
(lp6430
g1095
asVlibra
p6431
(lp6432
g1347
ag2141
ag2141
asVtape
p6433
(lp6434
g1618
asVfuel
p6435
(lp6436
g3138
asVflag for grenada
p6437
(lp6438
g764
asVpiano
p6439
(lp6440
g1607
asVlarge red circle\u224a red circle
p6441
(lp6442
g2813
asVwhite exclamation mark ornament\u224a white exclamation mark
p6443
(lp6444
g702
asVnail polish
p6445
(lp6446
g499
ag268
ag269
ag270
ag271
ag272
asVearbud
p6447
(lp6448
g1603
asVsagittarius
p6449
(lp6450
g1103
ag2554
ag2554
asVcuba
p6451
(lp6452
g4550
asVage restriction
p6453
(lp6454
g697
asVbear
p6455
(lp6456
g1926
ag1927
asVface with look of triumph\u224a face with steam from nose
p6457
(lp6458
g453
asVbaggage claim
p6459
(lp6460
g1057
asVflag for netherlands
p6461
(lp6462
g1073
asVsassy
p6463
(lp6464
g2129
asVblack nib
p6465
(lp6466
g952
asVface with thermometer
p6467
(lp6468
g2051
asVcherry blossom
p6469
(lp6470
g1956
asVpublic address
p6471
(lp6472
g1253
asVprevious scene
p6473
(lp6474
g1131
asVchildren crossing
p6475
(lp6476
g2122
asVdenmark
p6477
(lp6478
g2460
asVdejected
p6479
(lp6480
g1426
asVsquared new
p6481
(lp6482
g548
asVcrying cat face
p6483
(lp6484
g1898
asVsoft ice cream
p6485
(lp6486
g1541
asVshedding
p6487
(lp6488
g675
asValbania
p6489
(lp6490
g4548
asVogre
p6491
(lp6492
g473
asVoncoming police car
p6493
(lp6494
g2997
asVframe
p6495
(lp6496
g913
asVbellhop
p6497
(lp6498
g1559
asVvibration mode
p6499
(lp6500
g1642
asVtwo women holding hands
p6501
(lp6502
g686
asVmeat on bone
p6503
(lp6504
g1078
asVcloset
p6505
(lp6506
g624
asVblack left-pointing triangle\u224a reverse button
p6507
(lp6508
g1129
asVlock with ink pen\u224a lock with pen
p6509
(lp6510
g1627
asVicecream
p6511
(lp6512
g1541
asVclosed
p6513
(lp6514
g2294
ag927
ag946
ag947
ag1625
ag613
asVhorrible
p6515
(lp6516
g3596
asVpistol
p6517
(lp6518
g540
ag540
asVemail
p6519
(lp6520
g939
ag940
ag941
ag942
asVtent
p6521
(lp6522
g1556
ag1556
ag3345
asVwomans clothes\u224a woman\u2019s clothes
p6523
(lp6524
g1499
asVjoy
p6525
(lp6526
g2763
ag1893
asVperson with folded hands\u224a folded hands
p6527
(lp6528
g1743
asVcard index
p6529
(lp6530
g963
asVkey
p6531
(lp6532
g613
ag1628
ag1628
ag1629
asVcte ivoire
p6533
(lp6534
g2160
asVconfetti ball
p6535
(lp6536
g417
asVflag for georgia
p6537
(lp6538
g4558
asVrosette
p6539
(lp6540
g1957
ag1957
asVbookmark tabs
p6541
(lp6542
g936
asVdrum
p6543
(lp6544
g1638
asVear of maize\u224a ear of corn
p6545
(lp6546
g1529
asVflag for british indian ocean territory
p6547
(lp6548
g2186
asVjoke
p6549
(lp6550
g888
asVred apple
p6551
(lp6552
g1522
asVjersey
p6553
(lp6554
g4565
asVhundred points symbol\u224a hundred points
p6555
(lp6556
g563
asVnorth east arrow\u224a up-right arrow
p6557
(lp6558
g1105
asVnight with stars
p6559
(lp6560
g1979
asVcl
p6561
(lp6562
g723
asVtunisia
p6563
(lp6564
g4593
asVflag for india
p6565
(lp6566
g789
asVflag for morocco
p6567
(lp6568
g4573
asVwalk
p6569
(lp6570
g1372
asVneutral face
p6571
(lp6572
g1861
asVflag for monaco
p6573
(lp6574
g4574
asVlaugh
p6575
(lp6576
g2763
ag986
asVflag for czech republic
p6577
(lp6578
g4551
asVswimmer
p6579
(lp6580
g3150
ag3150
ag298
ag299
ag300
ag301
ag302
asVzipper
p6581
(lp6582
g1652
asVblack right-pointing double triangle\u224a fast-forword button
p6583
(lp6584
g1126
asVtrademark
p6585
(lp6586
g642
asVso tom
p6587
(lp6588
g3868
asVflag for liberia
p6589
(lp6590
g4571
asVsouth east arrow\u224a down-right arrow
p6591
(lp6592
g1106
asViran
p6593
(lp6594
g4263
asVpaperclip
p6595
(lp6596
g970
ag970
ag971
asVpage with curl
p6597
(lp6598
g933
asVmoneybag
p6599
(lp6600
g937
asVsunset over buildings\u224a sunset
p6601
(lp6602
g1981
asVrobot face
p6603
(lp6604
g3308
asVwhite up pointing backhand index\u224a backhand index pointing up
p6605
(lp6606
g1876
asVsleuth or spy
p6607
(lp6608
g73
ag74
ag75
ag76
ag77
asVgreen heart
p6609
(lp6610
g891
asVcontroller
p6611
(lp6612
g1588
asVcricket bat and ball\u224a cricket
p6613
(lp6614
g1583
asVbull
p6615
(lp6616
g1910
ag1367
ag2550
asVbulb
p6617
(lp6618
g1301
asVpine decoration
p6619
(lp6620
g480
asVpresent
p6621
(lp6622
g582
asVflag for russia
p6623
(lp6624
g3466
asVconfused face
p6625
(lp6626
g3030
asVflag for bhutan
p6627
(lp6628
g2042
asVfearful
p6629
(lp6630
g2823
ag1693
asVbritain
p6631
(lp6632
g2906
asVchagos
p6633
(lp6634
g2186
asVantigua
p6635
(lp6636
g860
asVparty popper
p6637
(lp6638
g577
asVbathtub
p6639
(lp6640
g1563
ag1564
ag1564
asVspider web
p6641
(lp6642
g1156
asVflag for sweden
p6643
(lp6644
g4584
asVrooster
p6645
(lp6646
g1931
ag1931
asVvs
p6647
(lp6648
g735
asVprevious track
p6649
(lp6650
g1131
asVhigh voltage sign\u224a high voltage
p6651
(lp6652
g366
asVkeycap digit one
p6653
(lp6654
g708
asVeducation
p6655
(lp6656
g2225
ag429
ag571
ag430
ag926
ag927
ag928
ag893
ag513
ag929
ag930
asVflag for mali
p6657
(lp6658
g2786
asVo\u2019clock
p6659
(lp6660
g1806
ag1159
ag1013
ag1827
ag339
ag1853
ag1854
ag1855
ag1856
ag1857
ag1666
ag1858
asVballoon
p6661
(lp6662
g1298
ag2952
ag1299
ag576
ag576
asVbuddhist
p6663
(lp6664
g2201
asVcross
p6665
(lp6666
g519
ag3342
ag2382
ag3938
ag493
asVflag for st. lucia
p6667
(lp6668
g4569
asVromance
p6669
(lp6670
g5378
ag2921
ag1480
ag1101
ag1659
ag1512
ag1513
ag1514
ag423
asVspeaker
p6671
(lp6672
g1592
ag1593
ag1593
ag1594
ag1252
asVnorthwest
p6673
(lp6674
g1110
asVparty
p6675
(lp6676
g577
asVflag for greece
p6677
(lp6678
g3473
asVball
p6679
(lp6680
g475
ag417
ag1265
ag1576
ag1143
ag1577
ag1578
ag1579
ag1580
ag1581
ag1582
ag1583
ag1584
ag1586
ag3676
ag2233
ag1280
asVdusk
p6681
(lp6682
g627
ag1981
asVdrink
p6683
(lp6684
g1550
ag838
ag426
ag1551
ag1800
ag669
ag670
ag1552
ag1553
ag1554
ag537
ag2791
ag1678
asVwhale
p6685
(lp6686
g1943
ag1944
ag1944
asVracing motorcycle\u224a motorcycle
p6687
(lp6688
g3151
asVidentity
p6689
(lp6690
g727
asVpoultry
p6691
(lp6692
g1140
asVoff
p6693
(lp6694
g1643
asVbadminton
p6695
(lp6696
g1227
asVweapon
p6697
(lp6698
g536
ag537
ag1630
ag1631
ag540
ag1103
ag1632
asVindonesia
p6699
(lp6700
g4563
asVthought
p6701
(lp6702
g1299
asVdharma
p6703
(lp6704
g2201
asV1
p6705
(lp6706
g1159
ag2308
ag708
asVspiral note pad\u224a spiral notepad
p6707
(lp6708
g961
asVpoultry leg
p6709
(lp6710
g1140
asVgrenadines
p6711
(lp6712
g857
asVmuscle
p6713
(lp6714
g1291
asVcoaster
p6715
(lp6716
g2029
asVrocket
p6717
(lp6718
g3148
ag3148
asVcamel
p6719
(lp6720
g1918
ag1320
asVmusical score
p6721
(lp6722
g1598
asVarriving
p6723
(lp6724
g2379
asVvoltage
p6725
(lp6726
g366
asVczech republic
p6727
(lp6728
g4551
asVflashlight
p6729
(lp6730
g1337
asVweb
p6731
(lp6732
g1156
asVno mobile phones
p6733
(lp6734
g1639
asVantarctic
p6735
(lp6736
g2865
asVbell
p6737
(lp6738
g1559
ag579
ag1596
ag1596
ag1597
asVmicronesia
p6739
(lp6740
g2971
asVbook
p6741
(lp6742
g926
ag927
ag928
ag893
ag513
ag929
ag930
asVaruba
p6743
(lp6744
g593
asVcosmetics
p6745
(lp6746
g499
ag1511
asVface throwing a kiss
p6747
(lp6748
g5374
asVflag for latvia
p6749
(lp6750
g4572
asVski
p6751
(lp6752
g1375
ag1453
ag1454
asVsierra leone
p6753
(lp6754
g4586
asVboom
p6755
(lp6756
g1294
asVcat face with tears of joy
p6757
(lp6758
g1893
asVreminder ribbon
p6759
(lp6760
g583
asVflag for congo - brazzaville
p6761
(lp6762
g1095
asVfuji
p6763
(lp6764
g1974
asVvictory hand
p6765
(lp6766
g1098
ag198
ag199
ag200
ag201
ag202
asVzimbabwe
p6767
(lp6768
g4600
asVfive
p6769
(lp6770
g1853
ag2678
ag710
asVbelgium
p6771
(lp6772
g3127
asVdoughnut
p6773
(lp6774
g1544
ag1544
asVpassword
p6775
(lp6776
g1628
asVleft-pointing magnifying glass
p6777
(lp6778
g671
asVface with ok gesture\u224a gesturing ok
p6779
(lp6780
g2217
asVraised hand
p6781
(lp6782
g2219
ag218
ag219
ag220
ag221
ag222
asVwomans sandal\u224a woman\u2019s sandal
p6783
(lp6784
g1506
asVfront-facing baby chick
p6785
(lp6786
g1934
asVreversed hand with middle finger extended\u224a middle finger
p6787
(lp6788
g1877
asVhotsprings
p6789
(lp6790
g839
asVflag for finland
p6791
(lp6792
g4556
asVchick
p6793
(lp6794
g1932
ag1933
ag1934
asVsoft
p6795
(lp6796
g1541
asVpage
p6797
(lp6798
g933
ag935
asVheel
p6799
(lp6800
g1505
asVdazed
p6801
(lp6802
g2649
asVclassical
p6803
(lp6804
g3335
asVscared
p6805
(lp6806
g2823
ag1693
asVgrowth
p6807
(lp6808
g351
ag964
asVmozambique
p6809
(lp6810
g4578
asVflag for bangladesh
p6811
(lp6812
g2704
asVhome
p6813
(lp6814
g2936
ag3339
asVsouth west arrow\u224a down-left arrow
p6815
(lp6816
g1108
asVballot
p6817
(lp6818
g1624
ag2583
asVleaf
p6819
(lp6820
g554
ag338
ag1965
ag1966
ag902
ag335
asVturkmenistan
p6821
(lp6822
g4592
asVsteaming
p6823
(lp6824
g1536
ag838
ag839
asV8 ball
p6825
(lp6826
g1581
asVwhite question mark ornament\u224a white question mark
p6827
(lp6828
g701
asVanguished
p6829
(lp6830
g5376
asVchains
p6831
(lp6832
g1634
asVflag for puerto rico
p6833
(lp6834
g4582
asVpepper
p6835
(lp6836
g837
asVslice of pizza\u224a pizza
p6837
(lp6838
g854
asVchequered flag
p6839
(lp6840
g692
asVshopping bags
p6841
(lp6842
g1502
asVfull moon with face
p6843
(lp6844
g1996
asVprohibited
p6845
(lp6846
g1213
ag1214
ag1215
ag2216
ag1597
ag2592
ag2174
ag382
ag2593
ag2541
ag1678
ag2594
ag1639
ag697
asVflag for niger
p6847
(lp6848
g4518
asVsquared cjk unified ideograph-7981\u224a squared prohibit ideograph
p6849
(lp6850
g492
asVpasta
p6851
(lp6852
g1537
asVoutbox
p6853
(lp6854
g943
asVquarter
p6855
(lp6856
g1985
ag1988
ag1992
ag1993
asVinbox
p6857
(lp6858
g944
asVsweat
p6859
(lp6860
g3178
ag3179
ag511
ag1295
ag1300
asVtongue
p6861
(lp6862
g5375
ag888
ag3596
ag5380
ag5380
asVupward
p6863
(lp6864
g351
ag964
asVferris wheel
p6865
(lp6866
g2200
asVburma
p6867
(lp6868
g616
asVcocos
p6869
(lp6870
g2500
asVhugging face
p6871
(lp6872
g3429
asVe-mail symbol\u224a e-mail
p6873
(lp6874
g940
asVman with gua pi mao\u224a man with chinese cap
p6875
(lp6876
g2303
asVguard
p6877
(lp6878
g2968
asVweather
p6879
(lp6880
g1768
ag1137
ag1978
ag1979
ag822
ag1980
ag627
ag1981
ag1406
ag1982
ag1983
ag1984
ag1985
ag1986
ag1987
ag1062
ag1988
ag1989
ag1990
ag1991
ag1992
ag1993
ag1994
ag1995
ag1996
ag1997
ag2000
ag2001
ag528
ag2002
ag2003
ag2004
ag2005
ag1449
ag2006
ag456
ag2007
ag903
ag1323
ag2008
ag2009
ag2010
ag2011
ag1243
ag1450
ag1451
ag1452
ag1300
ag1457
asVhungary
p6881
(lp6882
g4562
asVmobile phone
p6883
(lp6884
g1610
asVpostal horn
p6885
(lp6886
g496
asVdemocratic republic of congo
p6887
(lp6888
g610
asVkissing face with smiling eyes
p6889
(lp6890
g4360
asVcustard
p6891
(lp6892
g1549
ag1549
asVmaize
p6893
(lp6894
g1529
asVrushed
p6895
(lp6896
g511
asVmuseum
p6897
(lp6898
g913
ag834
asVspiral
p6899
(lp6900
g1949
ag961
ag962
asVname badge
p6901
(lp6902
g977
asVhorizontal traffic light
p6903
(lp6904
g2348
asVdouble exclamation mark
p6905
(lp6906
g698
asVmaze
p6907
(lp6908
g1529
asVflag for guadeloupe
p6909
(lp6910
g3019
asVface with rolling eyes
p6911
(lp6912
g2644
asVcricket
p6913
(lp6914
g1583
asVnorth
p6915
(lp6916
g1104
ag2363
ag3722
asVthunder cloud and rain\u224a cloud with lightning and rain
p6917
(lp6918
g528
asVdelivery
p6919
(lp6920
g3124
asVneutral
p6921
(lp6922
g1861
asVconstruction
p6923
(lp6924
g411
ag3336
ag1203
asVairplane departure
p6925
(lp6926
g3145
asVwhite large square
p6927
(lp6928
g2805
asVhocho\u224a kitchen knife
p6929
(lp6930
g536
asVautomated
p6931
(lp6932
g1066
asVwind chime
p6933
(lp6934
g579
asVear
p6935
(lp6936
g2194
ag5379
ag5379
ag273
ag274
ag275
ag276
ag277
ag1757
ag1529
asVbug
p6937
(lp6938
g1952
ag1952
asVwitness
p6939
(lp6940
g4135
asVsaxophone
p6941
(lp6942
g1605
ag1605
asVflag for sudan
p6943
(lp6944
g4066
asVblack medium small square\u224a black medium-small square
p6945
(lp6946
g2803
asVsouth sandwich
p6947
(lp6948
g3792
asVlarge orange diamond
p6949
(lp6950
g2806
asVrecord
p6951
(lp6952
g3815
asVeyeglasses\u224a glasses
p6953
(lp6954
g1493
asVcake
p6955
(lp6956
g1540
ag572
ag1546
asVpin
p6957
(lp6958
g968
ag969
asVface with no good gesture\u224a gesturing no
p6959
(lp6960
g2216
asVballot box with check
p6961
(lp6962
g2583
asVcircus
p6963
(lp6964
g3345
asVrolodex
p6965
(lp6966
g963
asVpig
p6967
(lp6968
g1913
ag1914
ag1914
ag1915
ag1916
asVflag for tuvalu
p6969
(lp6970
g4595
asVopen hands sign
p6971
(lp6972
g258
ag259
ag260
ag261
ag262
asVink
p6973
(lp6974
g1627
asVparaguay
p6975
(lp6976
g4583
asVsquared katakana koko
p6977
(lp6978
g484
asVshooting
p6979
(lp6980
g1999
asVflag for american samoa
p6981
(lp6982
g4415
asVkinshasa
p6983
(lp6984
g610
asVwestern sahara
p6985
(lp6986
g3785
asVboot
p6987
(lp6988
g1507
asVworld map
p6989
(lp6990
g3073
asVother
p6991
(lp6992
g2697
ag2101
ag4342
ag811
ag2829
ag860
ag363
ag4548
ag1696
ag1146
ag4476
ag2641
ag4415
ag2324
ag4049
ag593
ag3632
ag3625
ag1081
ag773
ag2704
ag3127
ag899
ag3350
ag1763
ag3490
ag2059
ag4172
ag3874
ag2909
ag2497
ag1072
ag1750
ag3408
ag2042
ag4112
ag605
ag1045
ag2692
ag587
ag2500
ag610
ag1175
ag1095
ag3536
ag2160
ag2752
ag2118
ag4549
ag2064
ag4485
ag2826
ag3639
ag4550
ag2321
ag1305
ag2414
ag357
ag4551
ag4552
ag3009
ag2272
ag2460
ag4553
ag1010
ag4554
ag2670
ag1021
ag2567
ag3211
ag3785
ag2136
ag3989
ag3871
ag4555
ag4556
ag2435
ag2611
ag2971
ag3419
ag1364
ag4557
ag2906
ag764
ag4558
ag2862
ag405
ag4301
ag3114
ag4559
ag1237
ag639
ag3019
ag4560
ag3473
ag3792
ag1779
ag4561
ag3613
ag1467
ag2065
ag3033
ag2536
ag3914
ag1789
ag4562
ag3167
ag4563
ag4502
ag4541
ag408
ag789
ag2186
ag2087
ag4263
ag1390
ag4564
ag4565
ag459
ag4566
ag1001
ag4567
ag2816
ag2599
ag4272
ag3773
ag3068
ag2363
ag2364
ag1036
ag400
ag2625
ag4568
ag630
ag4569
ag4570
ag3238
ag4571
ag1483
ag1256
ag3551
ag4572
ag3719
ag4573
ag4574
ag3849
ag1470
ag2863
ag2931
ag1283
ag2054
ag2786
ag616
ag3766
ag2066
ag3722
ag4032
ag4575
ag3620
ag4576
ag2240
ag4577
ag1246
ag2155
ag2373
ag4578
ag983
ag549
ag4518
ag770
ag4579
ag4580
ag1073
ag3198
ag4581
ag354
ag602
ag550
ag596
ag531
ag2959
ag2864
ag551
ag1230
ag3745
ag1429
ag2518
ag3487
ag4582
ag1352
ag3820
ag4283
ag4583
ag636
ag3049
ag3493
ag2851
ag3466
ag2614
ag4096
ag1393
ag992
ag4066
ag4584
ag3891
ag1249
ag2228
ag328
ag4585
ag4586
ag3476
ag4587
ag2838
ag2509
ag3022
ag3868
ag4588
ag4063
ag2360
ag560
ag4589
ag3558
ag4590
ag2865
ag4591
ag4093
ag2111
ag3573
ag1699
ag4592
ag4593
ag4594
ag3780
ag2941
ag4595
ag1846
ag2181
ag3317
ag4596
ag3545
ag3546
ag3027
ag4294
ag1740
ag857
ag1198
ag1268
ag2490
ag2673
ag4054
ag651
ag3973
ag4597
ag4598
ag1206
ag3917
ag4599
ag4600
asVice cream
p6993
(lp6994
g1543
asVsick
p6995
(lp6996
g1190
ag2051
ag1191
ag1192
asVgondola
p6997
(lp6998
g3147
ag3000
asVexclamation
p6999
(lp7000
g848
ag698
ag699
ag702
ag703
asVrepeat
p7001
(lp7002
g1123
asVstar
p7003
(lp7004
g1297
ag1979
ag1998
ag508
ag1999
ag878
ag4266
ag447
ag2799
ag2632
asVfootprints
p7005
(lp7006
g3040
asVsmoking symbol\u224a smoking
p7007
(lp7008
g1635
asVballot box with ballot
p7009
(lp7010
g1624
asVwolf face
p7011
(lp7012
g1901
asVnegative squared ab\u224a ab button
p7013
(lp7014
g721
asVpig face
p7015
(lp7016
g1913
asVamerican football
p7017
(lp7018
g1578
asVveil
p7019
(lp7020
g1784
asVghost
p7021
(lp7022
g1275
ag1275
asVdroplet
p7023
(lp7024
g1300
asVsquared ng
p7025
(lp7026
g729
asVatheist
p7027
(lp7028
g754
asVequatorial guinea
p7029
(lp7030
g4560
asVjewel
p7031
(lp7032
g1513
asVflag for thailand
p7033
(lp7034
g4093
asVsmiling cat face with open mouth
p7035
(lp7036
g1655
asVnorth west arrow\u224a up-left arrow
p7037
(lp7038
g1110
asVwind blowing face\u224a wind face
p7039
(lp7040
g903
asVsash
p7041
(lp7042
g1837
asVflag for nigeria
p7043
(lp7044
g4579
as.